
Bootloader.elf:     file format elf32-littlearm

Sections:
Idx Name          Size      VMA       LMA       File off  Algn
  0 .isr_vector   000001c4  08000000  08000000  00001000  2**0
                  CONTENTS, ALLOC, LOAD, READONLY, DATA
  1 .text         0000117c  080001c4  080001c4  000011c4  2**2
                  CONTENTS, ALLOC, LOAD, READONLY, CODE
  2 .rodata       00000438  08001340  08001340  00002340  2**2
                  CONTENTS, ALLOC, LOAD, READONLY, DATA
  3 .ARM.extab    00000000  08001778  08001778  00003004  2**0
                  CONTENTS, READONLY
  4 .ARM          00000000  08001778  08001778  00003004  2**0
                  CONTENTS, READONLY
  5 .preinit_array 00000000  08001778  08001778  00003004  2**0
                  CONTENTS, ALLOC, LOAD, DATA
  6 .init_array   00000004  08001778  08001778  00002778  2**2
                  CONTENTS, ALLOC, LOAD, READONLY, DATA
  7 .fini_array   00000004  0800177c  0800177c  0000277c  2**2
                  CONTENTS, ALLOC, LOAD, READONLY, DATA
  8 .data         00000004  20000000  08001780  00003000  2**0
                  CONTENTS, ALLOC, LOAD, DATA
  9 .bss          00000020  20000004  08001784  00003004  2**2
                  ALLOC
 10 ._user_heap_stack 00000604  20000024  08001784  00003024  2**0
                  ALLOC
 11 .ARM.attributes 00000030  00000000  00000000  00003004  2**0
                  CONTENTS, READONLY
 12 .debug_info   00002486  00000000  00000000  00003034  2**0
                  CONTENTS, READONLY, DEBUGGING, OCTETS
 13 .debug_abbrev 00000b36  00000000  00000000  000054ba  2**0
                  CONTENTS, READONLY, DEBUGGING, OCTETS
 14 .debug_aranges 000002d8  00000000  00000000  00005ff0  2**3
                  CONTENTS, READONLY, DEBUGGING, OCTETS
 15 .debug_rnglists 000001f9  00000000  00000000  000062c8  2**0
                  CONTENTS, READONLY, DEBUGGING, OCTETS
 16 .debug_macro  0002034d  00000000  00000000  000064c1  2**0
                  CONTENTS, READONLY, DEBUGGING, OCTETS
 17 .debug_line   000044a2  00000000  00000000  0002680e  2**0
                  CONTENTS, READONLY, DEBUGGING, OCTETS
 18 .debug_str    000c4b9c  00000000  00000000  0002acb0  2**0
                  CONTENTS, READONLY, DEBUGGING, OCTETS
 19 .comment      00000043  00000000  00000000  000ef84c  2**0
                  CONTENTS, READONLY
 20 .debug_frame  000008d4  00000000  00000000  000ef890  2**2
                  CONTENTS, READONLY, DEBUGGING, OCTETS
 21 .debug_line_str 00000057  00000000  00000000  000f0164  2**0
                  CONTENTS, READONLY, DEBUGGING, OCTETS

Disassembly of section .text:

080001c4 <__do_global_dtors_aux>:
 80001c4:	b510      	push	{r4, lr}
 80001c6:	4c05      	ldr	r4, [pc, #20]	@ (80001dc <__do_global_dtors_aux+0x18>)
 80001c8:	7823      	ldrb	r3, [r4, #0]
 80001ca:	b933      	cbnz	r3, 80001da <__do_global_dtors_aux+0x16>
 80001cc:	4b04      	ldr	r3, [pc, #16]	@ (80001e0 <__do_global_dtors_aux+0x1c>)
 80001ce:	b113      	cbz	r3, 80001d6 <__do_global_dtors_aux+0x12>
 80001d0:	4804      	ldr	r0, [pc, #16]	@ (80001e4 <__do_global_dtors_aux+0x20>)
 80001d2:	f3af 8000 	nop.w
 80001d6:	2301      	movs	r3, #1
 80001d8:	7023      	strb	r3, [r4, #0]
 80001da:	bd10      	pop	{r4, pc}
 80001dc:	20000004 	.word	0x20000004
 80001e0:	00000000 	.word	0x00000000
 80001e4:	08001328 	.word	0x08001328

080001e8 <frame_dummy>:
 80001e8:	b508      	push	{r3, lr}
 80001ea:	4b03      	ldr	r3, [pc, #12]	@ (80001f8 <frame_dummy+0x10>)
 80001ec:	b11b      	cbz	r3, 80001f6 <frame_dummy+0xe>
 80001ee:	4903      	ldr	r1, [pc, #12]	@ (80001fc <frame_dummy+0x14>)
 80001f0:	4803      	ldr	r0, [pc, #12]	@ (8000200 <frame_dummy+0x18>)
 80001f2:	f3af 8000 	nop.w
 80001f6:	bd08      	pop	{r3, pc}
 80001f8:	00000000 	.word	0x00000000
 80001fc:	20000008 	.word	0x20000008
 8000200:	08001328 	.word	0x08001328

08000204 <boot_jump_to_application>:
#include "app_jump.h"
#include "uart.h"
#include "stm32f4xx.h"

void boot_jump_to_application(uint32_t app_base)
{
 8000204:	b580      	push	{r7, lr}
 8000206:	b086      	sub	sp, #24
 8000208:	af00      	add	r7, sp, #0
 800020a:	6078      	str	r0, [r7, #4]
    uint32_t app_msp   = *(uint32_t *)(app_base + 0x00);
 800020c:	687b      	ldr	r3, [r7, #4]
 800020e:	681b      	ldr	r3, [r3, #0]
 8000210:	613b      	str	r3, [r7, #16]
    uint32_t app_reset = *(uint32_t *)(app_base + 0x04);
 8000212:	687b      	ldr	r3, [r7, #4]
 8000214:	3304      	adds	r3, #4
 8000216:	681b      	ldr	r3, [r3, #0]
 8000218:	60fb      	str	r3, [r7, #12]

    uart_send_str("-----Booting completed-------\r\n");
 800021a:	481d      	ldr	r0, [pc, #116]	@ (8000290 <boot_jump_to_application+0x8c>)
 800021c:	f000 ffe6 	bl	80011ec <uart_send_str>
    uart_send_str("Jumping to Application..............\r\n");
 8000220:	481c      	ldr	r0, [pc, #112]	@ (8000294 <boot_jump_to_application+0x90>)
 8000222:	f000 ffe3 	bl	80011ec <uart_send_str>
  \details Disables IRQ interrupts by setting special-purpose register PRIMASK.
           Can only be executed in Privileged modes.
 */
__STATIC_FORCEINLINE void __disable_irq(void)
{
  __ASM volatile ("cpsid i" : : : "memory");
 8000226:	b672      	cpsid	i
}
 8000228:	bf00      	nop

    __disable_irq();
    SysTick->CTRL = 0;
 800022a:	4b1b      	ldr	r3, [pc, #108]	@ (8000298 <boot_jump_to_application+0x94>)
 800022c:	2200      	movs	r2, #0
 800022e:	601a      	str	r2, [r3, #0]

    /* Disable all NVIC interrupts */
    for (uint32_t i = 0; i < 8; i++)
 8000230:	2300      	movs	r3, #0
 8000232:	617b      	str	r3, [r7, #20]
 8000234:	e010      	b.n	8000258 <boot_jump_to_application+0x54>
    {
        NVIC->ICER[i] = 0xFFFFFFFF;
 8000236:	4a19      	ldr	r2, [pc, #100]	@ (800029c <boot_jump_to_application+0x98>)
 8000238:	697b      	ldr	r3, [r7, #20]
 800023a:	3320      	adds	r3, #32
 800023c:	f04f 31ff 	mov.w	r1, #4294967295
 8000240:	f842 1023 	str.w	r1, [r2, r3, lsl #2]
        NVIC->ICPR[i] = 0xFFFFFFFF;
 8000244:	4a15      	ldr	r2, [pc, #84]	@ (800029c <boot_jump_to_application+0x98>)
 8000246:	697b      	ldr	r3, [r7, #20]
 8000248:	3360      	adds	r3, #96	@ 0x60
 800024a:	f04f 31ff 	mov.w	r1, #4294967295
 800024e:	f842 1023 	str.w	r1, [r2, r3, lsl #2]
    for (uint32_t i = 0; i < 8; i++)
 8000252:	697b      	ldr	r3, [r7, #20]
 8000254:	3301      	adds	r3, #1
 8000256:	617b      	str	r3, [r7, #20]
 8000258:	697b      	ldr	r3, [r7, #20]
 800025a:	2b07      	cmp	r3, #7
 800025c:	d9eb      	bls.n	8000236 <boot_jump_to_application+0x32>
    }

    SCB->SHCSR = 0;  /* Clear fault enables */
 800025e:	4b10      	ldr	r3, [pc, #64]	@ (80002a0 <boot_jump_to_application+0x9c>)
 8000260:	2200      	movs	r2, #0
 8000262:	625a      	str	r2, [r3, #36]	@ 0x24
 8000264:	693b      	ldr	r3, [r7, #16]
 8000266:	60bb      	str	r3, [r7, #8]
  \details Assigns the given value to the Main Stack Pointer (MSP).
  \param [in]    topOfMainStack  Main Stack Pointer value to set
 */
__STATIC_FORCEINLINE void __set_MSP(uint32_t topOfMainStack)
{
  __ASM volatile ("MSR msp, %0" : : "r" (topOfMainStack) : );
 8000268:	68bb      	ldr	r3, [r7, #8]
 800026a:	f383 8808 	msr	MSP, r3
}
 800026e:	bf00      	nop

    __set_MSP(app_msp);
    SCB->VTOR = app_base;
 8000270:	4a0b      	ldr	r2, [pc, #44]	@ (80002a0 <boot_jump_to_application+0x9c>)
 8000272:	687b      	ldr	r3, [r7, #4]
 8000274:	6093      	str	r3, [r2, #8]
  __ASM volatile ("dsb 0xF":::"memory");
 8000276:	f3bf 8f4f 	dsb	sy
}
 800027a:	bf00      	nop
  __ASM volatile ("isb 0xF":::"memory");
 800027c:	f3bf 8f6f 	isb	sy
}
 8000280:	bf00      	nop
  __ASM volatile ("cpsie i" : : : "memory");
 8000282:	b662      	cpsie	i
}
 8000284:	bf00      	nop

    __DSB();
    __ISB();
    __enable_irq();

    ((void (*)(void))app_reset)();
 8000286:	68fb      	ldr	r3, [r7, #12]
 8000288:	4798      	blx	r3

    while (1);
 800028a:	bf00      	nop
 800028c:	e7fd      	b.n	800028a <boot_jump_to_application+0x86>
 800028e:	bf00      	nop
 8000290:	08001340 	.word	0x08001340
 8000294:	08001360 	.word	0x08001360
 8000298:	e000e010 	.word	0xe000e010
 800029c:	e000e100 	.word	0xe000e100
 80002a0:	e000ed00 	.word	0xe000ed00

080002a4 <boot_verify_application>:
#include <string.h>

#define SECTOR3_BASE_ADDR  0x0800C000UL

BootVerifyStatus boot_verify_application(void)
{
 80002a4:	b580      	push	{r7, lr}
 80002a6:	b08a      	sub	sp, #40	@ 0x28
 80002a8:	af00      	add	r7, sp, #0
    /* Step 1: Read metadata from Sector 3 */
    BootMetadata_t *meta = (BootMetadata_t *)SECTOR3_BASE_ADDR;
 80002aa:	4b2b      	ldr	r3, [pc, #172]	@ (8000358 <boot_verify_application+0xb4>)
 80002ac:	627b      	str	r3, [r7, #36]	@ 0x24

    /* Step 2: Magic number check */
    if (meta->magic != BOOT_MAGIC) {
 80002ae:	6a7b      	ldr	r3, [r7, #36]	@ 0x24
 80002b0:	681b      	ldr	r3, [r3, #0]
 80002b2:	4a2a      	ldr	r2, [pc, #168]	@ (800035c <boot_verify_application+0xb8>)
 80002b4:	4293      	cmp	r3, r2
 80002b6:	d004      	beq.n	80002c2 <boot_verify_application+0x1e>
        uart_send_str("[BOOT] ERROR: Invalid magic number\r\n");
 80002b8:	4829      	ldr	r0, [pc, #164]	@ (8000360 <boot_verify_application+0xbc>)
 80002ba:	f000 ff97 	bl	80011ec <uart_send_str>
        return BOOT_VERIFY_FAIL;
 80002be:	2301      	movs	r3, #1
 80002c0:	e045      	b.n	800034e <boot_verify_application+0xaa>
    }
    uart_send_str("[BOOT] Magic OK\r\n");
 80002c2:	4828      	ldr	r0, [pc, #160]	@ (8000364 <boot_verify_application+0xc0>)
 80002c4:	f000 ff92 	bl	80011ec <uart_send_str>

    /* Step 3: Sanity check app address and size */
    if (meta->app_start_address != 0x08020000UL) {
 80002c8:	6a7b      	ldr	r3, [r7, #36]	@ 0x24
 80002ca:	685b      	ldr	r3, [r3, #4]
 80002cc:	4a26      	ldr	r2, [pc, #152]	@ (8000368 <boot_verify_application+0xc4>)
 80002ce:	4293      	cmp	r3, r2
 80002d0:	d004      	beq.n	80002dc <boot_verify_application+0x38>
        uart_send_str("[BOOT] ERROR: Invalid app start address\r\n");
 80002d2:	4826      	ldr	r0, [pc, #152]	@ (800036c <boot_verify_application+0xc8>)
 80002d4:	f000 ff8a 	bl	80011ec <uart_send_str>
        return BOOT_VERIFY_FAIL;
 80002d8:	2301      	movs	r3, #1
 80002da:	e038      	b.n	800034e <boot_verify_application+0xaa>
    }

    if (meta->app_size == 0 || meta->app_size > (384 * 1024)) {
 80002dc:	6a7b      	ldr	r3, [r7, #36]	@ 0x24
 80002de:	689b      	ldr	r3, [r3, #8]
 80002e0:	2b00      	cmp	r3, #0
 80002e2:	d004      	beq.n	80002ee <boot_verify_application+0x4a>
 80002e4:	6a7b      	ldr	r3, [r7, #36]	@ 0x24
 80002e6:	689b      	ldr	r3, [r3, #8]
 80002e8:	f5b3 2fc0 	cmp.w	r3, #393216	@ 0x60000
 80002ec:	d904      	bls.n	80002f8 <boot_verify_application+0x54>
        uart_send_str("[BOOT] ERROR: Invalid app size\r\n");
 80002ee:	4820      	ldr	r0, [pc, #128]	@ (8000370 <boot_verify_application+0xcc>)
 80002f0:	f000 ff7c 	bl	80011ec <uart_send_str>
        return BOOT_VERIFY_FAIL;
 80002f4:	2301      	movs	r3, #1
 80002f6:	e02a      	b.n	800034e <boot_verify_application+0xaa>
    }
    uart_send_str("[BOOT] Metadata sanity OK\r\n");
 80002f8:	481e      	ldr	r0, [pc, #120]	@ (8000374 <boot_verify_application+0xd0>)
 80002fa:	f000 ff77 	bl	80011ec <uart_send_str>

    /* Step 4: Compute SHA256 of application */
    uint8_t computed_hash[32];
    sha256_compute(
        (const uint8_t *)meta->app_start_address,
 80002fe:	6a7b      	ldr	r3, [r7, #36]	@ 0x24
 8000300:	685b      	ldr	r3, [r3, #4]
    sha256_compute(
 8000302:	4618      	mov	r0, r3
        meta->app_size,
 8000304:	6a7b      	ldr	r3, [r7, #36]	@ 0x24
 8000306:	689b      	ldr	r3, [r3, #8]
    sha256_compute(
 8000308:	463a      	mov	r2, r7
 800030a:	4619      	mov	r1, r3
 800030c:	f000 feb2 	bl	8001074 <sha256_compute>
        computed_hash
    );
    uart_send_str("[BOOT] SHA256 computed\r\n");
 8000310:	4819      	ldr	r0, [pc, #100]	@ (8000378 <boot_verify_application+0xd4>)
 8000312:	f000 ff6b 	bl	80011ec <uart_send_str>

    /* Step 5: RSA verify signature against computed hash */
    uart_send_str("[BOOT] RSA verification going on ...............\n");
 8000316:	4819      	ldr	r0, [pc, #100]	@ (800037c <boot_verify_application+0xd8>)
 8000318:	f000 ff68 	bl	80011ec <uart_send_str>
    RSA_Status result = rsa_verify(
        meta->signature,
 800031c:	6a7b      	ldr	r3, [r7, #36]	@ 0x24
 800031e:	f103 0010 	add.w	r0, r3, #16
    RSA_Status result = rsa_verify(
 8000322:	f04f 1301 	mov.w	r3, #65537	@ 0x10001
 8000326:	4639      	mov	r1, r7
 8000328:	4a15      	ldr	r2, [pc, #84]	@ (8000380 <boot_verify_application+0xdc>)
 800032a:	f000 fa53 	bl	80007d4 <rsa_verify>
 800032e:	4603      	mov	r3, r0
 8000330:	f887 3023 	strb.w	r3, [r7, #35]	@ 0x23
        computed_hash,
        RSA_PUBLIC_MODULUS,
        RSA_PUBLIC_EXPONENT
    );

    if (result != RSA_VERIFY_OK) {
 8000334:	f897 3023 	ldrb.w	r3, [r7, #35]	@ 0x23
 8000338:	2b00      	cmp	r3, #0
 800033a:	d004      	beq.n	8000346 <boot_verify_application+0xa2>
        uart_send_str("[BOOT] ERROR: Signature verification FAILED\r\n");
 800033c:	4811      	ldr	r0, [pc, #68]	@ (8000384 <boot_verify_application+0xe0>)
 800033e:	f000 ff55 	bl	80011ec <uart_send_str>
        return BOOT_VERIFY_FAIL;
 8000342:	2301      	movs	r3, #1
 8000344:	e003      	b.n	800034e <boot_verify_application+0xaa>
    }

    uart_send_str("[BOOT] Signature verification PASSED\r\n");
 8000346:	4810      	ldr	r0, [pc, #64]	@ (8000388 <boot_verify_application+0xe4>)
 8000348:	f000 ff50 	bl	80011ec <uart_send_str>
    return BOOT_VERIFY_OK;
 800034c:	2300      	movs	r3, #0
}
 800034e:	4618      	mov	r0, r3
 8000350:	3728      	adds	r7, #40	@ 0x28
 8000352:	46bd      	mov	sp, r7
 8000354:	bd80      	pop	{r7, pc}
 8000356:	bf00      	nop
 8000358:	0800c000 	.word	0x0800c000
 800035c:	b007cafe 	.word	0xb007cafe
 8000360:	08001388 	.word	0x08001388
 8000364:	080013b0 	.word	0x080013b0
 8000368:	08020000 	.word	0x08020000
 800036c:	080013c4 	.word	0x080013c4
 8000370:	080013f0 	.word	0x080013f0
 8000374:	08001414 	.word	0x08001414
 8000378:	08001430 	.word	0x08001430
 800037c:	0800144c 	.word	0x0800144c
 8000380:	08001564 	.word	0x08001564
 8000384:	08001480 	.word	0x08001480
 8000388:	080014b0 	.word	0x080014b0

0800038c <main>:
#include "app_jump.h"

#define APP_BASE 0x08020000UL

int main(void)
{
 800038c:	b580      	push	{r7, lr}
 800038e:	af00      	add	r7, sp, #0
    uart_init();
 8000390:	f000 fef8 	bl	8001184 <uart_init>
    uart_send_str("=== Secure Bootloader ===\r\n");
 8000394:	480b      	ldr	r0, [pc, #44]	@ (80003c4 <main+0x38>)
 8000396:	f000 ff29 	bl	80011ec <uart_send_str>
    uart_send_str("[BOOT] Starting verification...\r\n");
 800039a:	480b      	ldr	r0, [pc, #44]	@ (80003c8 <main+0x3c>)
 800039c:	f000 ff26 	bl	80011ec <uart_send_str>

    if (boot_verify_application() != BOOT_VERIFY_OK) {
 80003a0:	f7ff ff80 	bl	80002a4 <boot_verify_application>
 80003a4:	4603      	mov	r3, r0
 80003a6:	2b00      	cmp	r3, #0
 80003a8:	d004      	beq.n	80003b4 <main+0x28>
        uart_send_str("[BOOT] Verification failed. Halting.\r\n");
 80003aa:	4808      	ldr	r0, [pc, #32]	@ (80003cc <main+0x40>)
 80003ac:	f000 ff1e 	bl	80011ec <uart_send_str>
        while (1);
 80003b0:	bf00      	nop
 80003b2:	e7fd      	b.n	80003b0 <main+0x24>
    }

    uart_send_str("[BOOT] Jumping to application...\r\n");
 80003b4:	4806      	ldr	r0, [pc, #24]	@ (80003d0 <main+0x44>)
 80003b6:	f000 ff19 	bl	80011ec <uart_send_str>
    boot_jump_to_application(APP_BASE);
 80003ba:	4806      	ldr	r0, [pc, #24]	@ (80003d4 <main+0x48>)
 80003bc:	f7ff ff22 	bl	8000204 <boot_jump_to_application>

    while (1);
 80003c0:	bf00      	nop
 80003c2:	e7fd      	b.n	80003c0 <main+0x34>
 80003c4:	080014d8 	.word	0x080014d8
 80003c8:	080014f4 	.word	0x080014f4
 80003cc:	08001518 	.word	0x08001518
 80003d0:	08001540 	.word	0x08001540
 80003d4:	08020000 	.word	0x08020000

080003d8 <bn_zero>:
#include "uart.h"
#include <string.h>

#define BN_SIZE 256

static void bn_zero(uint8_t *a)             { memset(a, 0, BN_SIZE); }
 80003d8:	b580      	push	{r7, lr}
 80003da:	b082      	sub	sp, #8
 80003dc:	af00      	add	r7, sp, #0
 80003de:	6078      	str	r0, [r7, #4]
 80003e0:	f44f 7280 	mov.w	r2, #256	@ 0x100
 80003e4:	2100      	movs	r1, #0
 80003e6:	6878      	ldr	r0, [r7, #4]
 80003e8:	f000 ff64 	bl	80012b4 <memset>
 80003ec:	bf00      	nop
 80003ee:	3708      	adds	r7, #8
 80003f0:	46bd      	mov	sp, r7
 80003f2:	bd80      	pop	{r7, pc}

080003f4 <bn_copy>:
static void bn_copy(uint8_t *d, const uint8_t *s) { memcpy(d, s, BN_SIZE); }
 80003f4:	b580      	push	{r7, lr}
 80003f6:	b082      	sub	sp, #8
 80003f8:	af00      	add	r7, sp, #0
 80003fa:	6078      	str	r0, [r7, #4]
 80003fc:	6039      	str	r1, [r7, #0]
 80003fe:	f44f 7280 	mov.w	r2, #256	@ 0x100
 8000402:	6839      	ldr	r1, [r7, #0]
 8000404:	6878      	ldr	r0, [r7, #4]
 8000406:	f000 ff81 	bl	800130c <memcpy>
 800040a:	bf00      	nop
 800040c:	3708      	adds	r7, #8
 800040e:	46bd      	mov	sp, r7
 8000410:	bd80      	pop	{r7, pc}

08000412 <bn_one>:

static void bn_one(uint8_t *a)
{
 8000412:	b580      	push	{r7, lr}
 8000414:	b082      	sub	sp, #8
 8000416:	af00      	add	r7, sp, #0
 8000418:	6078      	str	r0, [r7, #4]
    bn_zero(a);
 800041a:	6878      	ldr	r0, [r7, #4]
 800041c:	f7ff ffdc 	bl	80003d8 <bn_zero>
    a[BN_SIZE - 1] = 1;
 8000420:	687b      	ldr	r3, [r7, #4]
 8000422:	33ff      	adds	r3, #255	@ 0xff
 8000424:	2201      	movs	r2, #1
 8000426:	701a      	strb	r2, [r3, #0]
}
 8000428:	bf00      	nop
 800042a:	3708      	adds	r7, #8
 800042c:	46bd      	mov	sp, r7
 800042e:	bd80      	pop	{r7, pc}

08000430 <bn_cmp>:

static int bn_cmp(const uint8_t *a, const uint8_t *b)
{
 8000430:	b480      	push	{r7}
 8000432:	b085      	sub	sp, #20
 8000434:	af00      	add	r7, sp, #0
 8000436:	6078      	str	r0, [r7, #4]
 8000438:	6039      	str	r1, [r7, #0]
    for (int i = 0; i < BN_SIZE; i++) {
 800043a:	2300      	movs	r3, #0
 800043c:	60fb      	str	r3, [r7, #12]
 800043e:	e01b      	b.n	8000478 <bn_cmp+0x48>
        if (a[i] < b[i]) return -1;
 8000440:	68fb      	ldr	r3, [r7, #12]
 8000442:	687a      	ldr	r2, [r7, #4]
 8000444:	4413      	add	r3, r2
 8000446:	781a      	ldrb	r2, [r3, #0]
 8000448:	68fb      	ldr	r3, [r7, #12]
 800044a:	6839      	ldr	r1, [r7, #0]
 800044c:	440b      	add	r3, r1
 800044e:	781b      	ldrb	r3, [r3, #0]
 8000450:	429a      	cmp	r2, r3
 8000452:	d202      	bcs.n	800045a <bn_cmp+0x2a>
 8000454:	f04f 33ff 	mov.w	r3, #4294967295
 8000458:	e012      	b.n	8000480 <bn_cmp+0x50>
        if (a[i] > b[i]) return  1;
 800045a:	68fb      	ldr	r3, [r7, #12]
 800045c:	687a      	ldr	r2, [r7, #4]
 800045e:	4413      	add	r3, r2
 8000460:	781a      	ldrb	r2, [r3, #0]
 8000462:	68fb      	ldr	r3, [r7, #12]
 8000464:	6839      	ldr	r1, [r7, #0]
 8000466:	440b      	add	r3, r1
 8000468:	781b      	ldrb	r3, [r3, #0]
 800046a:	429a      	cmp	r2, r3
 800046c:	d901      	bls.n	8000472 <bn_cmp+0x42>
 800046e:	2301      	movs	r3, #1
 8000470:	e006      	b.n	8000480 <bn_cmp+0x50>
    for (int i = 0; i < BN_SIZE; i++) {
 8000472:	68fb      	ldr	r3, [r7, #12]
 8000474:	3301      	adds	r3, #1
 8000476:	60fb      	str	r3, [r7, #12]
 8000478:	68fb      	ldr	r3, [r7, #12]
 800047a:	2bff      	cmp	r3, #255	@ 0xff
 800047c:	dde0      	ble.n	8000440 <bn_cmp+0x10>
    }
    return 0;
 800047e:	2300      	movs	r3, #0
}
 8000480:	4618      	mov	r0, r3
 8000482:	3714      	adds	r7, #20
 8000484:	46bd      	mov	sp, r7
 8000486:	f85d 7b04 	ldr.w	r7, [sp], #4
 800048a:	4770      	bx	lr

0800048c <bn_addmod>:

static void bn_addmod(uint8_t *result,
                      const uint8_t *a,
                      const uint8_t *b,
                      const uint8_t *n)
{
 800048c:	b590      	push	{r4, r7, lr}
 800048e:	b0cb      	sub	sp, #300	@ 0x12c
 8000490:	af00      	add	r7, sp, #0
 8000492:	f507 7494 	add.w	r4, r7, #296	@ 0x128
 8000496:	f5a4 748e 	sub.w	r4, r4, #284	@ 0x11c
 800049a:	6020      	str	r0, [r4, #0]
 800049c:	f507 7094 	add.w	r0, r7, #296	@ 0x128
 80004a0:	f5a0 7090 	sub.w	r0, r0, #288	@ 0x120
 80004a4:	6001      	str	r1, [r0, #0]
 80004a6:	f507 7194 	add.w	r1, r7, #296	@ 0x128
 80004aa:	f5a1 7192 	sub.w	r1, r1, #292	@ 0x124
 80004ae:	600a      	str	r2, [r1, #0]
 80004b0:	f507 7294 	add.w	r2, r7, #296	@ 0x128
 80004b4:	f5a2 7294 	sub.w	r2, r2, #296	@ 0x128
 80004b8:	6013      	str	r3, [r2, #0]
    uint16_t carry = 0;
 80004ba:	2300      	movs	r3, #0
 80004bc:	f8a7 3126 	strh.w	r3, [r7, #294]	@ 0x126
    uint8_t  tmp[BN_SIZE];

    for (int i = BN_SIZE - 1; i >= 0; i--) {
 80004c0:	23ff      	movs	r3, #255	@ 0xff
 80004c2:	f8c7 3120 	str.w	r3, [r7, #288]	@ 0x120
 80004c6:	e02f      	b.n	8000528 <bn_addmod+0x9c>
        uint16_t sum = (uint16_t)a[i] + b[i] + carry;
 80004c8:	f8d7 3120 	ldr.w	r3, [r7, #288]	@ 0x120
 80004cc:	f507 7294 	add.w	r2, r7, #296	@ 0x128
 80004d0:	f5a2 7290 	sub.w	r2, r2, #288	@ 0x120
 80004d4:	6812      	ldr	r2, [r2, #0]
 80004d6:	4413      	add	r3, r2
 80004d8:	781b      	ldrb	r3, [r3, #0]
 80004da:	4619      	mov	r1, r3
 80004dc:	f8d7 3120 	ldr.w	r3, [r7, #288]	@ 0x120
 80004e0:	f507 7294 	add.w	r2, r7, #296	@ 0x128
 80004e4:	f5a2 7292 	sub.w	r2, r2, #292	@ 0x124
 80004e8:	6812      	ldr	r2, [r2, #0]
 80004ea:	4413      	add	r3, r2
 80004ec:	781b      	ldrb	r3, [r3, #0]
 80004ee:	440b      	add	r3, r1
 80004f0:	b29a      	uxth	r2, r3
 80004f2:	f8b7 3126 	ldrh.w	r3, [r7, #294]	@ 0x126
 80004f6:	4413      	add	r3, r2
 80004f8:	f8a7 3114 	strh.w	r3, [r7, #276]	@ 0x114
        tmp[i] = (uint8_t)(sum & 0xFF);
 80004fc:	f8b7 3114 	ldrh.w	r3, [r7, #276]	@ 0x114
 8000500:	b2d9      	uxtb	r1, r3
 8000502:	f507 7394 	add.w	r3, r7, #296	@ 0x128
 8000506:	f5a3 728a 	sub.w	r2, r3, #276	@ 0x114
 800050a:	f8d7 3120 	ldr.w	r3, [r7, #288]	@ 0x120
 800050e:	4413      	add	r3, r2
 8000510:	460a      	mov	r2, r1
 8000512:	701a      	strb	r2, [r3, #0]
        carry  = sum >> 8;
 8000514:	f8b7 3114 	ldrh.w	r3, [r7, #276]	@ 0x114
 8000518:	0a1b      	lsrs	r3, r3, #8
 800051a:	f8a7 3126 	strh.w	r3, [r7, #294]	@ 0x126
    for (int i = BN_SIZE - 1; i >= 0; i--) {
 800051e:	f8d7 3120 	ldr.w	r3, [r7, #288]	@ 0x120
 8000522:	3b01      	subs	r3, #1
 8000524:	f8c7 3120 	str.w	r3, [r7, #288]	@ 0x120
 8000528:	f8d7 3120 	ldr.w	r3, [r7, #288]	@ 0x120
 800052c:	2b00      	cmp	r3, #0
 800052e:	dacb      	bge.n	80004c8 <bn_addmod+0x3c>
    }

    if (carry || bn_cmp(tmp, n) >= 0) {
 8000530:	f8b7 3126 	ldrh.w	r3, [r7, #294]	@ 0x126
 8000534:	2b00      	cmp	r3, #0
 8000536:	d10c      	bne.n	8000552 <bn_addmod+0xc6>
 8000538:	f507 7394 	add.w	r3, r7, #296	@ 0x128
 800053c:	f5a3 7394 	sub.w	r3, r3, #296	@ 0x128
 8000540:	f107 0214 	add.w	r2, r7, #20
 8000544:	6819      	ldr	r1, [r3, #0]
 8000546:	4610      	mov	r0, r2
 8000548:	f7ff ff72 	bl	8000430 <bn_cmp>
 800054c:	4603      	mov	r3, r0
 800054e:	2b00      	cmp	r3, #0
 8000550:	db48      	blt.n	80005e4 <bn_addmod+0x158>
        uint16_t borrow = 0;
 8000552:	2300      	movs	r3, #0
 8000554:	f8a7 311e 	strh.w	r3, [r7, #286]	@ 0x11e
        for (int i = BN_SIZE - 1; i >= 0; i--) {
 8000558:	23ff      	movs	r3, #255	@ 0xff
 800055a:	f8c7 3118 	str.w	r3, [r7, #280]	@ 0x118
 800055e:	e03c      	b.n	80005da <bn_addmod+0x14e>
            int16_t diff = (int16_t)tmp[i] - n[i] - borrow;
 8000560:	f507 7394 	add.w	r3, r7, #296	@ 0x128
 8000564:	f5a3 728a 	sub.w	r2, r3, #276	@ 0x114
 8000568:	f8d7 3118 	ldr.w	r3, [r7, #280]	@ 0x118
 800056c:	4413      	add	r3, r2
 800056e:	781b      	ldrb	r3, [r3, #0]
 8000570:	4619      	mov	r1, r3
 8000572:	f8d7 3118 	ldr.w	r3, [r7, #280]	@ 0x118
 8000576:	f507 7294 	add.w	r2, r7, #296	@ 0x128
 800057a:	f5a2 7294 	sub.w	r2, r2, #296	@ 0x128
 800057e:	6812      	ldr	r2, [r2, #0]
 8000580:	4413      	add	r3, r2
 8000582:	781b      	ldrb	r3, [r3, #0]
 8000584:	1acb      	subs	r3, r1, r3
 8000586:	b29a      	uxth	r2, r3
 8000588:	f8b7 311e 	ldrh.w	r3, [r7, #286]	@ 0x11e
 800058c:	1ad3      	subs	r3, r2, r3
 800058e:	b29b      	uxth	r3, r3
 8000590:	f8a7 3116 	strh.w	r3, [r7, #278]	@ 0x116
            if (diff < 0) { diff += 256; borrow = 1; }
 8000594:	f9b7 3116 	ldrsh.w	r3, [r7, #278]	@ 0x116
 8000598:	2b00      	cmp	r3, #0
 800059a:	da0a      	bge.n	80005b2 <bn_addmod+0x126>
 800059c:	f8b7 3116 	ldrh.w	r3, [r7, #278]	@ 0x116
 80005a0:	f503 7380 	add.w	r3, r3, #256	@ 0x100
 80005a4:	b29b      	uxth	r3, r3
 80005a6:	f8a7 3116 	strh.w	r3, [r7, #278]	@ 0x116
 80005aa:	2301      	movs	r3, #1
 80005ac:	f8a7 311e 	strh.w	r3, [r7, #286]	@ 0x11e
 80005b0:	e002      	b.n	80005b8 <bn_addmod+0x12c>
            else          { borrow = 0; }
 80005b2:	2300      	movs	r3, #0
 80005b4:	f8a7 311e 	strh.w	r3, [r7, #286]	@ 0x11e
            result[i] = (uint8_t)diff;
 80005b8:	f8d7 3118 	ldr.w	r3, [r7, #280]	@ 0x118
 80005bc:	f507 7294 	add.w	r2, r7, #296	@ 0x128
 80005c0:	f5a2 728e 	sub.w	r2, r2, #284	@ 0x11c
 80005c4:	6812      	ldr	r2, [r2, #0]
 80005c6:	4413      	add	r3, r2
 80005c8:	f8b7 2116 	ldrh.w	r2, [r7, #278]	@ 0x116
 80005cc:	b2d2      	uxtb	r2, r2
 80005ce:	701a      	strb	r2, [r3, #0]
        for (int i = BN_SIZE - 1; i >= 0; i--) {
 80005d0:	f8d7 3118 	ldr.w	r3, [r7, #280]	@ 0x118
 80005d4:	3b01      	subs	r3, #1
 80005d6:	f8c7 3118 	str.w	r3, [r7, #280]	@ 0x118
 80005da:	f8d7 3118 	ldr.w	r3, [r7, #280]	@ 0x118
 80005de:	2b00      	cmp	r3, #0
 80005e0:	dabe      	bge.n	8000560 <bn_addmod+0xd4>
    if (carry || bn_cmp(tmp, n) >= 0) {
 80005e2:	e00a      	b.n	80005fa <bn_addmod+0x16e>
        }
    } else {
        bn_copy(result, tmp);
 80005e4:	f107 0214 	add.w	r2, r7, #20
 80005e8:	f507 7394 	add.w	r3, r7, #296	@ 0x128
 80005ec:	f5a3 738e 	sub.w	r3, r3, #284	@ 0x11c
 80005f0:	4611      	mov	r1, r2
 80005f2:	6818      	ldr	r0, [r3, #0]
 80005f4:	f7ff fefe 	bl	80003f4 <bn_copy>
    }
}
 80005f8:	bf00      	nop
 80005fa:	bf00      	nop
 80005fc:	f507 7796 	add.w	r7, r7, #300	@ 0x12c
 8000600:	46bd      	mov	sp, r7
 8000602:	bd90      	pop	{r4, r7, pc}

08000604 <bn_mulmod>:

static void bn_mulmod(uint8_t *result,
                      const uint8_t *a,
                      const uint8_t *b,
                      const uint8_t *n)
{
 8000604:	b590      	push	{r4, r7, lr}
 8000606:	f5ad 7d07 	sub.w	sp, sp, #540	@ 0x21c
 800060a:	af00      	add	r7, sp, #0
 800060c:	f507 7406 	add.w	r4, r7, #536	@ 0x218
 8000610:	f5a4 7403 	sub.w	r4, r4, #524	@ 0x20c
 8000614:	6020      	str	r0, [r4, #0]
 8000616:	f507 7006 	add.w	r0, r7, #536	@ 0x218
 800061a:	f5a0 7004 	sub.w	r0, r0, #528	@ 0x210
 800061e:	6001      	str	r1, [r0, #0]
 8000620:	f507 7106 	add.w	r1, r7, #536	@ 0x218
 8000624:	f5a1 7105 	sub.w	r1, r1, #532	@ 0x214
 8000628:	600a      	str	r2, [r1, #0]
 800062a:	f507 7206 	add.w	r2, r7, #536	@ 0x218
 800062e:	f5a2 7206 	sub.w	r2, r2, #536	@ 0x218
 8000632:	6013      	str	r3, [r2, #0]
    uint8_t R[BN_SIZE];
    uint8_t A[BN_SIZE];
    bn_zero(R);
 8000634:	f507 7388 	add.w	r3, r7, #272	@ 0x110
 8000638:	4618      	mov	r0, r3
 800063a:	f7ff fecd 	bl	80003d8 <bn_zero>
    bn_copy(A, a);
 800063e:	f507 7306 	add.w	r3, r7, #536	@ 0x218
 8000642:	f5a3 7304 	sub.w	r3, r3, #528	@ 0x210
 8000646:	f107 0210 	add.w	r2, r7, #16
 800064a:	6819      	ldr	r1, [r3, #0]
 800064c:	4610      	mov	r0, r2
 800064e:	f7ff fed1 	bl	80003f4 <bn_copy>

    for (int byte_i = BN_SIZE - 1; byte_i >= 0; byte_i--) {
 8000652:	23ff      	movs	r3, #255	@ 0xff
 8000654:	f8c7 3214 	str.w	r3, [r7, #532]	@ 0x214
 8000658:	e03d      	b.n	80006d6 <bn_mulmod+0xd2>
        for (int bit = 0; bit <= 7; bit++) {       /* ← FIX: LSB first */
 800065a:	2300      	movs	r3, #0
 800065c:	f8c7 3210 	str.w	r3, [r7, #528]	@ 0x210
 8000660:	e030      	b.n	80006c4 <bn_mulmod+0xc0>
            if ((b[byte_i] >> bit) & 1)
 8000662:	f8d7 3214 	ldr.w	r3, [r7, #532]	@ 0x214
 8000666:	f507 7206 	add.w	r2, r7, #536	@ 0x218
 800066a:	f5a2 7205 	sub.w	r2, r2, #532	@ 0x214
 800066e:	6812      	ldr	r2, [r2, #0]
 8000670:	4413      	add	r3, r2
 8000672:	781b      	ldrb	r3, [r3, #0]
 8000674:	461a      	mov	r2, r3
 8000676:	f8d7 3210 	ldr.w	r3, [r7, #528]	@ 0x210
 800067a:	fa42 f303 	asr.w	r3, r2, r3
 800067e:	f003 0301 	and.w	r3, r3, #1
 8000682:	2b00      	cmp	r3, #0
 8000684:	d00c      	beq.n	80006a0 <bn_mulmod+0x9c>
                bn_addmod(R, R, A, n);
 8000686:	f507 7306 	add.w	r3, r7, #536	@ 0x218
 800068a:	f5a3 7306 	sub.w	r3, r3, #536	@ 0x218
 800068e:	f107 0210 	add.w	r2, r7, #16
 8000692:	f507 7188 	add.w	r1, r7, #272	@ 0x110
 8000696:	f507 7088 	add.w	r0, r7, #272	@ 0x110
 800069a:	681b      	ldr	r3, [r3, #0]
 800069c:	f7ff fef6 	bl	800048c <bn_addmod>
            bn_addmod(A, A, A, n);
 80006a0:	f507 7306 	add.w	r3, r7, #536	@ 0x218
 80006a4:	f5a3 7306 	sub.w	r3, r3, #536	@ 0x218
 80006a8:	f107 0210 	add.w	r2, r7, #16
 80006ac:	f107 0110 	add.w	r1, r7, #16
 80006b0:	f107 0010 	add.w	r0, r7, #16
 80006b4:	681b      	ldr	r3, [r3, #0]
 80006b6:	f7ff fee9 	bl	800048c <bn_addmod>
        for (int bit = 0; bit <= 7; bit++) {       /* ← FIX: LSB first */
 80006ba:	f8d7 3210 	ldr.w	r3, [r7, #528]	@ 0x210
 80006be:	3301      	adds	r3, #1
 80006c0:	f8c7 3210 	str.w	r3, [r7, #528]	@ 0x210
 80006c4:	f8d7 3210 	ldr.w	r3, [r7, #528]	@ 0x210
 80006c8:	2b07      	cmp	r3, #7
 80006ca:	ddca      	ble.n	8000662 <bn_mulmod+0x5e>
    for (int byte_i = BN_SIZE - 1; byte_i >= 0; byte_i--) {
 80006cc:	f8d7 3214 	ldr.w	r3, [r7, #532]	@ 0x214
 80006d0:	3b01      	subs	r3, #1
 80006d2:	f8c7 3214 	str.w	r3, [r7, #532]	@ 0x214
 80006d6:	f8d7 3214 	ldr.w	r3, [r7, #532]	@ 0x214
 80006da:	2b00      	cmp	r3, #0
 80006dc:	dabd      	bge.n	800065a <bn_mulmod+0x56>
        }
    }
    bn_copy(result, R);
 80006de:	f507 7288 	add.w	r2, r7, #272	@ 0x110
 80006e2:	f507 7306 	add.w	r3, r7, #536	@ 0x218
 80006e6:	f5a3 7303 	sub.w	r3, r3, #524	@ 0x20c
 80006ea:	4611      	mov	r1, r2
 80006ec:	6818      	ldr	r0, [r3, #0]
 80006ee:	f7ff fe81 	bl	80003f4 <bn_copy>
}
 80006f2:	bf00      	nop
 80006f4:	f507 7707 	add.w	r7, r7, #540	@ 0x21c
 80006f8:	46bd      	mov	sp, r7
 80006fa:	bd90      	pop	{r4, r7, pc}

080006fc <bn_powmod>:

static void bn_powmod(uint8_t *result,
                      const uint8_t *base,
                      uint32_t       exp,
                      const uint8_t *n)
{
 80006fc:	b590      	push	{r4, r7, lr}
 80006fe:	f5ad 7d05 	sub.w	sp, sp, #532	@ 0x214
 8000702:	af00      	add	r7, sp, #0
 8000704:	f507 7404 	add.w	r4, r7, #528	@ 0x210
 8000708:	f5a4 7401 	sub.w	r4, r4, #516	@ 0x204
 800070c:	6020      	str	r0, [r4, #0]
 800070e:	f507 7004 	add.w	r0, r7, #528	@ 0x210
 8000712:	f5a0 7002 	sub.w	r0, r0, #520	@ 0x208
 8000716:	6001      	str	r1, [r0, #0]
 8000718:	f507 7104 	add.w	r1, r7, #528	@ 0x210
 800071c:	f5a1 7103 	sub.w	r1, r1, #524	@ 0x20c
 8000720:	600a      	str	r2, [r1, #0]
 8000722:	f507 7204 	add.w	r2, r7, #528	@ 0x210
 8000726:	f5a2 7204 	sub.w	r2, r2, #528	@ 0x210
 800072a:	6013      	str	r3, [r2, #0]
    uint8_t R[BN_SIZE];
    uint8_t B[BN_SIZE];
    bn_one(R);
 800072c:	f507 7388 	add.w	r3, r7, #272	@ 0x110
 8000730:	4618      	mov	r0, r3
 8000732:	f7ff fe6e 	bl	8000412 <bn_one>
    bn_copy(B, base);
 8000736:	f507 7304 	add.w	r3, r7, #528	@ 0x210
 800073a:	f5a3 7302 	sub.w	r3, r3, #520	@ 0x208
 800073e:	f107 0210 	add.w	r2, r7, #16
 8000742:	6819      	ldr	r1, [r3, #0]
 8000744:	4610      	mov	r0, r2
 8000746:	f7ff fe55 	bl	80003f4 <bn_copy>

    while (exp > 0) {
 800074a:	e02d      	b.n	80007a8 <bn_powmod+0xac>
        if (exp & 1)
 800074c:	f507 7304 	add.w	r3, r7, #528	@ 0x210
 8000750:	f5a3 7303 	sub.w	r3, r3, #524	@ 0x20c
 8000754:	681b      	ldr	r3, [r3, #0]
 8000756:	f003 0301 	and.w	r3, r3, #1
 800075a:	2b00      	cmp	r3, #0
 800075c:	d00c      	beq.n	8000778 <bn_powmod+0x7c>
            bn_mulmod(R, R, B, n);
 800075e:	f507 7304 	add.w	r3, r7, #528	@ 0x210
 8000762:	f5a3 7304 	sub.w	r3, r3, #528	@ 0x210
 8000766:	f107 0210 	add.w	r2, r7, #16
 800076a:	f507 7188 	add.w	r1, r7, #272	@ 0x110
 800076e:	f507 7088 	add.w	r0, r7, #272	@ 0x110
 8000772:	681b      	ldr	r3, [r3, #0]
 8000774:	f7ff ff46 	bl	8000604 <bn_mulmod>
        bn_mulmod(B, B, B, n);
 8000778:	f507 7304 	add.w	r3, r7, #528	@ 0x210
 800077c:	f5a3 7304 	sub.w	r3, r3, #528	@ 0x210
 8000780:	f107 0210 	add.w	r2, r7, #16
 8000784:	f107 0110 	add.w	r1, r7, #16
 8000788:	f107 0010 	add.w	r0, r7, #16
 800078c:	681b      	ldr	r3, [r3, #0]
 800078e:	f7ff ff39 	bl	8000604 <bn_mulmod>
        exp >>= 1;
 8000792:	f507 7304 	add.w	r3, r7, #528	@ 0x210
 8000796:	f5a3 7303 	sub.w	r3, r3, #524	@ 0x20c
 800079a:	f507 7204 	add.w	r2, r7, #528	@ 0x210
 800079e:	f5a2 7203 	sub.w	r2, r2, #524	@ 0x20c
 80007a2:	6812      	ldr	r2, [r2, #0]
 80007a4:	0852      	lsrs	r2, r2, #1
 80007a6:	601a      	str	r2, [r3, #0]
    while (exp > 0) {
 80007a8:	f507 7304 	add.w	r3, r7, #528	@ 0x210
 80007ac:	f5a3 7303 	sub.w	r3, r3, #524	@ 0x20c
 80007b0:	681b      	ldr	r3, [r3, #0]
 80007b2:	2b00      	cmp	r3, #0
 80007b4:	d1ca      	bne.n	800074c <bn_powmod+0x50>
    }
    bn_copy(result, R);
 80007b6:	f507 7288 	add.w	r2, r7, #272	@ 0x110
 80007ba:	f507 7304 	add.w	r3, r7, #528	@ 0x210
 80007be:	f5a3 7301 	sub.w	r3, r3, #516	@ 0x204
 80007c2:	4611      	mov	r1, r2
 80007c4:	6818      	ldr	r0, [r3, #0]
 80007c6:	f7ff fe15 	bl	80003f4 <bn_copy>
}
 80007ca:	bf00      	nop
 80007cc:	f507 7705 	add.w	r7, r7, #532	@ 0x214
 80007d0:	46bd      	mov	sp, r7
 80007d2:	bd90      	pop	{r4, r7, pc}

080007d4 <rsa_verify>:

RSA_Status rsa_verify(const uint8_t *signature,
                      const uint8_t *hash,
                      const uint8_t *modulus,
                      uint32_t       exponent)
{
 80007d4:	b590      	push	{r4, r7, lr}
 80007d6:	b0c9      	sub	sp, #292	@ 0x124
 80007d8:	af00      	add	r7, sp, #0
 80007da:	f507 7490 	add.w	r4, r7, #288	@ 0x120
 80007de:	f5a4 748a 	sub.w	r4, r4, #276	@ 0x114
 80007e2:	6020      	str	r0, [r4, #0]
 80007e4:	f507 7090 	add.w	r0, r7, #288	@ 0x120
 80007e8:	f5a0 708c 	sub.w	r0, r0, #280	@ 0x118
 80007ec:	6001      	str	r1, [r0, #0]
 80007ee:	f507 7190 	add.w	r1, r7, #288	@ 0x120
 80007f2:	f5a1 718e 	sub.w	r1, r1, #284	@ 0x11c
 80007f6:	600a      	str	r2, [r1, #0]
 80007f8:	f507 7290 	add.w	r2, r7, #288	@ 0x120
 80007fc:	f5a2 7290 	sub.w	r2, r2, #288	@ 0x120
 8000800:	6013      	str	r3, [r2, #0]
    uint8_t decrypted[BN_SIZE];

    bn_powmod(decrypted, signature, exponent, modulus);
 8000802:	f507 7390 	add.w	r3, r7, #288	@ 0x120
 8000806:	f5a3 738e 	sub.w	r3, r3, #284	@ 0x11c
 800080a:	f507 7290 	add.w	r2, r7, #288	@ 0x120
 800080e:	f5a2 7290 	sub.w	r2, r2, #288	@ 0x120
 8000812:	f507 7190 	add.w	r1, r7, #288	@ 0x120
 8000816:	f5a1 718a 	sub.w	r1, r1, #276	@ 0x114
 800081a:	f107 0014 	add.w	r0, r7, #20
 800081e:	681b      	ldr	r3, [r3, #0]
 8000820:	6812      	ldr	r2, [r2, #0]
 8000822:	6809      	ldr	r1, [r1, #0]
 8000824:	f7ff ff6a 	bl	80006fc <bn_powmod>

    /* PKCS#1 v1.5 structure:
     * 0x00 | 0x01 | [0xFF...] | 0x00 | DigestInfo(19B) | Hash(32B) */

    if (decrypted[0] != 0x00) return RSA_VERIFY_FAIL;
 8000828:	f507 7390 	add.w	r3, r7, #288	@ 0x120
 800082c:	f5a3 7386 	sub.w	r3, r3, #268	@ 0x10c
 8000830:	781b      	ldrb	r3, [r3, #0]
 8000832:	2b00      	cmp	r3, #0
 8000834:	d001      	beq.n	800083a <rsa_verify+0x66>
 8000836:	2301      	movs	r3, #1
 8000838:	e062      	b.n	8000900 <rsa_verify+0x12c>
    if (decrypted[1] != 0x01) return RSA_VERIFY_FAIL;
 800083a:	f507 7390 	add.w	r3, r7, #288	@ 0x120
 800083e:	f5a3 7386 	sub.w	r3, r3, #268	@ 0x10c
 8000842:	785b      	ldrb	r3, [r3, #1]
 8000844:	2b01      	cmp	r3, #1
 8000846:	d001      	beq.n	800084c <rsa_verify+0x78>
 8000848:	2301      	movs	r3, #1
 800084a:	e059      	b.n	8000900 <rsa_verify+0x12c>

    /* Find 0x00 separator */
    int sep = -1;
 800084c:	f04f 33ff 	mov.w	r3, #4294967295
 8000850:	f8c7 311c 	str.w	r3, [r7, #284]	@ 0x11c
    for (int i = 2; i < BN_SIZE - 32; i++) {
 8000854:	2302      	movs	r3, #2
 8000856:	f8c7 3118 	str.w	r3, [r7, #280]	@ 0x118
 800085a:	e01f      	b.n	800089c <rsa_verify+0xc8>
        if (decrypted[i] == 0x00) { sep = i; break; }
 800085c:	f507 7390 	add.w	r3, r7, #288	@ 0x120
 8000860:	f5a3 7286 	sub.w	r2, r3, #268	@ 0x10c
 8000864:	f8d7 3118 	ldr.w	r3, [r7, #280]	@ 0x118
 8000868:	4413      	add	r3, r2
 800086a:	781b      	ldrb	r3, [r3, #0]
 800086c:	2b00      	cmp	r3, #0
 800086e:	d104      	bne.n	800087a <rsa_verify+0xa6>
 8000870:	f8d7 3118 	ldr.w	r3, [r7, #280]	@ 0x118
 8000874:	f8c7 311c 	str.w	r3, [r7, #284]	@ 0x11c
 8000878:	e014      	b.n	80008a4 <rsa_verify+0xd0>
        if (decrypted[i] != 0xFF) return RSA_VERIFY_FAIL;
 800087a:	f507 7390 	add.w	r3, r7, #288	@ 0x120
 800087e:	f5a3 7286 	sub.w	r2, r3, #268	@ 0x10c
 8000882:	f8d7 3118 	ldr.w	r3, [r7, #280]	@ 0x118
 8000886:	4413      	add	r3, r2
 8000888:	781b      	ldrb	r3, [r3, #0]
 800088a:	2bff      	cmp	r3, #255	@ 0xff
 800088c:	d001      	beq.n	8000892 <rsa_verify+0xbe>
 800088e:	2301      	movs	r3, #1
 8000890:	e036      	b.n	8000900 <rsa_verify+0x12c>
    for (int i = 2; i < BN_SIZE - 32; i++) {
 8000892:	f8d7 3118 	ldr.w	r3, [r7, #280]	@ 0x118
 8000896:	3301      	adds	r3, #1
 8000898:	f8c7 3118 	str.w	r3, [r7, #280]	@ 0x118
 800089c:	f8d7 3118 	ldr.w	r3, [r7, #280]	@ 0x118
 80008a0:	2bdf      	cmp	r3, #223	@ 0xdf
 80008a2:	dddb      	ble.n	800085c <rsa_verify+0x88>
    }
    if (sep < 10) return RSA_VERIFY_FAIL;
 80008a4:	f8d7 311c 	ldr.w	r3, [r7, #284]	@ 0x11c
 80008a8:	2b09      	cmp	r3, #9
 80008aa:	dc01      	bgt.n	80008b0 <rsa_verify+0xdc>
 80008ac:	2301      	movs	r3, #1
 80008ae:	e027      	b.n	8000900 <rsa_verify+0x12c>

    /* Check DigestInfo prefix starting at sep+1 */
    if (memcmp(&decrypted[sep + 1],                /* ← FIX: sep+1 not sep */
 80008b0:	f8d7 311c 	ldr.w	r3, [r7, #284]	@ 0x11c
 80008b4:	3301      	adds	r3, #1
 80008b6:	f107 0214 	add.w	r2, r7, #20
 80008ba:	4413      	add	r3, r2
 80008bc:	2213      	movs	r2, #19
 80008be:	4913      	ldr	r1, [pc, #76]	@ (800090c <rsa_verify+0x138>)
 80008c0:	4618      	mov	r0, r3
 80008c2:	f000 fce7 	bl	8001294 <memcmp>
 80008c6:	4603      	mov	r3, r0
 80008c8:	2b00      	cmp	r3, #0
 80008ca:	d001      	beq.n	80008d0 <rsa_verify+0xfc>
               PKCS1_SHA256_PREFIX,
               sizeof(PKCS1_SHA256_PREFIX)) != 0)
        return RSA_VERIFY_FAIL;
 80008cc:	2301      	movs	r3, #1
 80008ce:	e017      	b.n	8000900 <rsa_verify+0x12c>

    /* Hash starts after separator(1) + DigestInfo prefix(19) */
    int hash_offset = sep + 1 + sizeof(PKCS1_SHA256_PREFIX); /* ← FIX: sep+20 */
 80008d0:	f8d7 311c 	ldr.w	r3, [r7, #284]	@ 0x11c
 80008d4:	3314      	adds	r3, #20
 80008d6:	f8c7 3114 	str.w	r3, [r7, #276]	@ 0x114
    if (memcmp(&decrypted[hash_offset], hash, 32) != 0)
 80008da:	f107 0214 	add.w	r2, r7, #20
 80008de:	f8d7 3114 	ldr.w	r3, [r7, #276]	@ 0x114
 80008e2:	18d0      	adds	r0, r2, r3
 80008e4:	f507 7390 	add.w	r3, r7, #288	@ 0x120
 80008e8:	f5a3 738c 	sub.w	r3, r3, #280	@ 0x118
 80008ec:	2220      	movs	r2, #32
 80008ee:	6819      	ldr	r1, [r3, #0]
 80008f0:	f000 fcd0 	bl	8001294 <memcmp>
 80008f4:	4603      	mov	r3, r0
 80008f6:	2b00      	cmp	r3, #0
 80008f8:	d001      	beq.n	80008fe <rsa_verify+0x12a>
        return RSA_VERIFY_FAIL;
 80008fa:	2301      	movs	r3, #1
 80008fc:	e000      	b.n	8000900 <rsa_verify+0x12c>

    return RSA_VERIFY_OK;
 80008fe:	2300      	movs	r3, #0
}
 8000900:	4618      	mov	r0, r3
 8000902:	f507 7792 	add.w	r7, r7, #292	@ 0x124
 8000906:	46bd      	mov	sp, r7
 8000908:	bd90      	pop	{r4, r7, pc}
 800090a:	bf00      	nop
 800090c:	08001664 	.word	0x08001664

08000910 <sha256_transform>:
    0x748f82ee,0x78a5636f,0x84c87814,0x8cc70208,
    0x90befffa,0xa4506ceb,0xbef9a3f7,0xc67178f2
};

static void sha256_transform(SHA256_CTX *ctx, const uint8_t *data)
{
 8000910:	b480      	push	{r7}
 8000912:	b0cf      	sub	sp, #316	@ 0x13c
 8000914:	af00      	add	r7, sp, #0
 8000916:	f507 739c 	add.w	r3, r7, #312	@ 0x138
 800091a:	f5a3 739a 	sub.w	r3, r3, #308	@ 0x134
 800091e:	6018      	str	r0, [r3, #0]
 8000920:	f507 739c 	add.w	r3, r7, #312	@ 0x138
 8000924:	f5a3 739c 	sub.w	r3, r3, #312	@ 0x138
 8000928:	6019      	str	r1, [r3, #0]
    uint32_t a,b,c,d,e,f,g,h,i,j,t1,t2,m[64];

    for (i=0,j=0; i<16; ++i,j+=4)
 800092a:	2300      	movs	r3, #0
 800092c:	f8c7 3114 	str.w	r3, [r7, #276]	@ 0x114
 8000930:	2300      	movs	r3, #0
 8000932:	f8c7 3110 	str.w	r3, [r7, #272]	@ 0x110
 8000936:	e03f      	b.n	80009b8 <sha256_transform+0xa8>
        m[i] = ((uint32_t)data[j]<<24)
 8000938:	f507 739c 	add.w	r3, r7, #312	@ 0x138
 800093c:	f5a3 739c 	sub.w	r3, r3, #312	@ 0x138
 8000940:	681a      	ldr	r2, [r3, #0]
 8000942:	f8d7 3110 	ldr.w	r3, [r7, #272]	@ 0x110
 8000946:	4413      	add	r3, r2
 8000948:	781b      	ldrb	r3, [r3, #0]
 800094a:	061a      	lsls	r2, r3, #24
              |((uint32_t)data[j+1]<<16)
 800094c:	f8d7 3110 	ldr.w	r3, [r7, #272]	@ 0x110
 8000950:	3301      	adds	r3, #1
 8000952:	f507 719c 	add.w	r1, r7, #312	@ 0x138
 8000956:	f5a1 719c 	sub.w	r1, r1, #312	@ 0x138
 800095a:	6809      	ldr	r1, [r1, #0]
 800095c:	440b      	add	r3, r1
 800095e:	781b      	ldrb	r3, [r3, #0]
 8000960:	041b      	lsls	r3, r3, #16
 8000962:	431a      	orrs	r2, r3
              |((uint32_t)data[j+2]<<8)
 8000964:	f8d7 3110 	ldr.w	r3, [r7, #272]	@ 0x110
 8000968:	3302      	adds	r3, #2
 800096a:	f507 719c 	add.w	r1, r7, #312	@ 0x138
 800096e:	f5a1 719c 	sub.w	r1, r1, #312	@ 0x138
 8000972:	6809      	ldr	r1, [r1, #0]
 8000974:	440b      	add	r3, r1
 8000976:	781b      	ldrb	r3, [r3, #0]
 8000978:	021b      	lsls	r3, r3, #8
 800097a:	4313      	orrs	r3, r2
              |((uint32_t)data[j+3]);
 800097c:	f8d7 2110 	ldr.w	r2, [r7, #272]	@ 0x110
 8000980:	3203      	adds	r2, #3
 8000982:	f507 719c 	add.w	r1, r7, #312	@ 0x138
 8000986:	f5a1 719c 	sub.w	r1, r1, #312	@ 0x138
 800098a:	6809      	ldr	r1, [r1, #0]
 800098c:	440a      	add	r2, r1
 800098e:	7812      	ldrb	r2, [r2, #0]
 8000990:	ea43 0102 	orr.w	r1, r3, r2
        m[i] = ((uint32_t)data[j]<<24)
 8000994:	f507 739c 	add.w	r3, r7, #312	@ 0x138
 8000998:	f5a3 7398 	sub.w	r3, r3, #304	@ 0x130
 800099c:	f8d7 2114 	ldr.w	r2, [r7, #276]	@ 0x114
 80009a0:	f843 1022 	str.w	r1, [r3, r2, lsl #2]
    for (i=0,j=0; i<16; ++i,j+=4)
 80009a4:	f8d7 3114 	ldr.w	r3, [r7, #276]	@ 0x114
 80009a8:	3301      	adds	r3, #1
 80009aa:	f8c7 3114 	str.w	r3, [r7, #276]	@ 0x114
 80009ae:	f8d7 3110 	ldr.w	r3, [r7, #272]	@ 0x110
 80009b2:	3304      	adds	r3, #4
 80009b4:	f8c7 3110 	str.w	r3, [r7, #272]	@ 0x110
 80009b8:	f8d7 3114 	ldr.w	r3, [r7, #276]	@ 0x114
 80009bc:	2b0f      	cmp	r3, #15
 80009be:	d9bb      	bls.n	8000938 <sha256_transform+0x28>

    for (; i<64; ++i)
 80009c0:	e069      	b.n	8000a96 <sha256_transform+0x186>
        m[i] = SIG1(m[i-2]) + m[i-7] + SIG0(m[i-15]) + m[i-16];
 80009c2:	f8d7 3114 	ldr.w	r3, [r7, #276]	@ 0x114
 80009c6:	1e9a      	subs	r2, r3, #2
 80009c8:	f507 739c 	add.w	r3, r7, #312	@ 0x138
 80009cc:	f5a3 7398 	sub.w	r3, r3, #304	@ 0x130
 80009d0:	f853 3022 	ldr.w	r3, [r3, r2, lsl #2]
 80009d4:	ea4f 4273 	mov.w	r2, r3, ror #17
 80009d8:	f8d7 3114 	ldr.w	r3, [r7, #276]	@ 0x114
 80009dc:	1e99      	subs	r1, r3, #2
 80009de:	f507 739c 	add.w	r3, r7, #312	@ 0x138
 80009e2:	f5a3 7398 	sub.w	r3, r3, #304	@ 0x130
 80009e6:	f853 3021 	ldr.w	r3, [r3, r1, lsl #2]
 80009ea:	ea4f 43f3 	mov.w	r3, r3, ror #19
 80009ee:	405a      	eors	r2, r3
 80009f0:	f8d7 3114 	ldr.w	r3, [r7, #276]	@ 0x114
 80009f4:	1e99      	subs	r1, r3, #2
 80009f6:	f507 739c 	add.w	r3, r7, #312	@ 0x138
 80009fa:	f5a3 7398 	sub.w	r3, r3, #304	@ 0x130
 80009fe:	f853 3021 	ldr.w	r3, [r3, r1, lsl #2]
 8000a02:	0a9b      	lsrs	r3, r3, #10
 8000a04:	405a      	eors	r2, r3
 8000a06:	f8d7 3114 	ldr.w	r3, [r7, #276]	@ 0x114
 8000a0a:	1fd9      	subs	r1, r3, #7
 8000a0c:	f507 739c 	add.w	r3, r7, #312	@ 0x138
 8000a10:	f5a3 7398 	sub.w	r3, r3, #304	@ 0x130
 8000a14:	f853 3021 	ldr.w	r3, [r3, r1, lsl #2]
 8000a18:	441a      	add	r2, r3
 8000a1a:	f8d7 3114 	ldr.w	r3, [r7, #276]	@ 0x114
 8000a1e:	f1a3 010f 	sub.w	r1, r3, #15
 8000a22:	f507 739c 	add.w	r3, r7, #312	@ 0x138
 8000a26:	f5a3 7398 	sub.w	r3, r3, #304	@ 0x130
 8000a2a:	f853 3021 	ldr.w	r3, [r3, r1, lsl #2]
 8000a2e:	ea4f 11f3 	mov.w	r1, r3, ror #7
 8000a32:	f8d7 3114 	ldr.w	r3, [r7, #276]	@ 0x114
 8000a36:	f1a3 000f 	sub.w	r0, r3, #15
 8000a3a:	f507 739c 	add.w	r3, r7, #312	@ 0x138
 8000a3e:	f5a3 7398 	sub.w	r3, r3, #304	@ 0x130
 8000a42:	f853 3020 	ldr.w	r3, [r3, r0, lsl #2]
 8000a46:	ea4f 43b3 	mov.w	r3, r3, ror #18
 8000a4a:	4059      	eors	r1, r3
 8000a4c:	f8d7 3114 	ldr.w	r3, [r7, #276]	@ 0x114
 8000a50:	f1a3 000f 	sub.w	r0, r3, #15
 8000a54:	f507 739c 	add.w	r3, r7, #312	@ 0x138
 8000a58:	f5a3 7398 	sub.w	r3, r3, #304	@ 0x130
 8000a5c:	f853 3020 	ldr.w	r3, [r3, r0, lsl #2]
 8000a60:	08db      	lsrs	r3, r3, #3
 8000a62:	404b      	eors	r3, r1
 8000a64:	441a      	add	r2, r3
 8000a66:	f8d7 3114 	ldr.w	r3, [r7, #276]	@ 0x114
 8000a6a:	f1a3 0110 	sub.w	r1, r3, #16
 8000a6e:	f507 739c 	add.w	r3, r7, #312	@ 0x138
 8000a72:	f5a3 7398 	sub.w	r3, r3, #304	@ 0x130
 8000a76:	f853 3021 	ldr.w	r3, [r3, r1, lsl #2]
 8000a7a:	18d1      	adds	r1, r2, r3
 8000a7c:	f507 739c 	add.w	r3, r7, #312	@ 0x138
 8000a80:	f5a3 7398 	sub.w	r3, r3, #304	@ 0x130
 8000a84:	f8d7 2114 	ldr.w	r2, [r7, #276]	@ 0x114
 8000a88:	f843 1022 	str.w	r1, [r3, r2, lsl #2]
    for (; i<64; ++i)
 8000a8c:	f8d7 3114 	ldr.w	r3, [r7, #276]	@ 0x114
 8000a90:	3301      	adds	r3, #1
 8000a92:	f8c7 3114 	str.w	r3, [r7, #276]	@ 0x114
 8000a96:	f8d7 3114 	ldr.w	r3, [r7, #276]	@ 0x114
 8000a9a:	2b3f      	cmp	r3, #63	@ 0x3f
 8000a9c:	d991      	bls.n	80009c2 <sha256_transform+0xb2>

    a=ctx->state[0]; b=ctx->state[1];
 8000a9e:	f507 739c 	add.w	r3, r7, #312	@ 0x138
 8000aa2:	f5a3 739a 	sub.w	r3, r3, #308	@ 0x134
 8000aa6:	681b      	ldr	r3, [r3, #0]
 8000aa8:	6d1b      	ldr	r3, [r3, #80]	@ 0x50
 8000aaa:	f8c7 3134 	str.w	r3, [r7, #308]	@ 0x134
 8000aae:	f507 739c 	add.w	r3, r7, #312	@ 0x138
 8000ab2:	f5a3 739a 	sub.w	r3, r3, #308	@ 0x134
 8000ab6:	681b      	ldr	r3, [r3, #0]
 8000ab8:	6d5b      	ldr	r3, [r3, #84]	@ 0x54
 8000aba:	f8c7 3130 	str.w	r3, [r7, #304]	@ 0x130
    c=ctx->state[2]; d=ctx->state[3];
 8000abe:	f507 739c 	add.w	r3, r7, #312	@ 0x138
 8000ac2:	f5a3 739a 	sub.w	r3, r3, #308	@ 0x134
 8000ac6:	681b      	ldr	r3, [r3, #0]
 8000ac8:	6d9b      	ldr	r3, [r3, #88]	@ 0x58
 8000aca:	f8c7 312c 	str.w	r3, [r7, #300]	@ 0x12c
 8000ace:	f507 739c 	add.w	r3, r7, #312	@ 0x138
 8000ad2:	f5a3 739a 	sub.w	r3, r3, #308	@ 0x134
 8000ad6:	681b      	ldr	r3, [r3, #0]
 8000ad8:	6ddb      	ldr	r3, [r3, #92]	@ 0x5c
 8000ada:	f8c7 3128 	str.w	r3, [r7, #296]	@ 0x128
    e=ctx->state[4]; f=ctx->state[5];
 8000ade:	f507 739c 	add.w	r3, r7, #312	@ 0x138
 8000ae2:	f5a3 739a 	sub.w	r3, r3, #308	@ 0x134
 8000ae6:	681b      	ldr	r3, [r3, #0]
 8000ae8:	6e1b      	ldr	r3, [r3, #96]	@ 0x60
 8000aea:	f8c7 3124 	str.w	r3, [r7, #292]	@ 0x124
 8000aee:	f507 739c 	add.w	r3, r7, #312	@ 0x138
 8000af2:	f5a3 739a 	sub.w	r3, r3, #308	@ 0x134
 8000af6:	681b      	ldr	r3, [r3, #0]
 8000af8:	6e5b      	ldr	r3, [r3, #100]	@ 0x64
 8000afa:	f8c7 3120 	str.w	r3, [r7, #288]	@ 0x120
    g=ctx->state[6]; h=ctx->state[7];
 8000afe:	f507 739c 	add.w	r3, r7, #312	@ 0x138
 8000b02:	f5a3 739a 	sub.w	r3, r3, #308	@ 0x134
 8000b06:	681b      	ldr	r3, [r3, #0]
 8000b08:	6e9b      	ldr	r3, [r3, #104]	@ 0x68
 8000b0a:	f8c7 311c 	str.w	r3, [r7, #284]	@ 0x11c
 8000b0e:	f507 739c 	add.w	r3, r7, #312	@ 0x138
 8000b12:	f5a3 739a 	sub.w	r3, r3, #308	@ 0x134
 8000b16:	681b      	ldr	r3, [r3, #0]
 8000b18:	6edb      	ldr	r3, [r3, #108]	@ 0x6c
 8000b1a:	f8c7 3118 	str.w	r3, [r7, #280]	@ 0x118

    for (i=0; i<64; ++i) {
 8000b1e:	2300      	movs	r3, #0
 8000b20:	f8c7 3114 	str.w	r3, [r7, #276]	@ 0x114
 8000b24:	e078      	b.n	8000c18 <sha256_transform+0x308>
        t1 = h + EP1(e) + CH(e,f,g) + k[i] + m[i];
 8000b26:	f8d7 3124 	ldr.w	r3, [r7, #292]	@ 0x124
 8000b2a:	ea4f 12b3 	mov.w	r2, r3, ror #6
 8000b2e:	f8d7 3124 	ldr.w	r3, [r7, #292]	@ 0x124
 8000b32:	ea4f 23f3 	mov.w	r3, r3, ror #11
 8000b36:	405a      	eors	r2, r3
 8000b38:	f8d7 3124 	ldr.w	r3, [r7, #292]	@ 0x124
 8000b3c:	ea4f 6373 	mov.w	r3, r3, ror #25
 8000b40:	405a      	eors	r2, r3
 8000b42:	f8d7 3118 	ldr.w	r3, [r7, #280]	@ 0x118
 8000b46:	441a      	add	r2, r3
 8000b48:	f8d7 1124 	ldr.w	r1, [r7, #292]	@ 0x124
 8000b4c:	f8d7 3120 	ldr.w	r3, [r7, #288]	@ 0x120
 8000b50:	4019      	ands	r1, r3
 8000b52:	f8d7 3124 	ldr.w	r3, [r7, #292]	@ 0x124
 8000b56:	43d8      	mvns	r0, r3
 8000b58:	f8d7 311c 	ldr.w	r3, [r7, #284]	@ 0x11c
 8000b5c:	4003      	ands	r3, r0
 8000b5e:	404b      	eors	r3, r1
 8000b60:	441a      	add	r2, r3
 8000b62:	496f      	ldr	r1, [pc, #444]	@ (8000d20 <sha256_transform+0x410>)
 8000b64:	f8d7 3114 	ldr.w	r3, [r7, #276]	@ 0x114
 8000b68:	f851 3023 	ldr.w	r3, [r1, r3, lsl #2]
 8000b6c:	441a      	add	r2, r3
 8000b6e:	f507 739c 	add.w	r3, r7, #312	@ 0x138
 8000b72:	f5a3 7398 	sub.w	r3, r3, #304	@ 0x130
 8000b76:	f8d7 1114 	ldr.w	r1, [r7, #276]	@ 0x114
 8000b7a:	f853 3021 	ldr.w	r3, [r3, r1, lsl #2]
 8000b7e:	4413      	add	r3, r2
 8000b80:	f8c7 310c 	str.w	r3, [r7, #268]	@ 0x10c
        t2 = EP0(a) + MAJ(a,b,c);
 8000b84:	f8d7 3134 	ldr.w	r3, [r7, #308]	@ 0x134
 8000b88:	ea4f 02b3 	mov.w	r2, r3, ror #2
 8000b8c:	f8d7 3134 	ldr.w	r3, [r7, #308]	@ 0x134
 8000b90:	ea4f 3373 	mov.w	r3, r3, ror #13
 8000b94:	405a      	eors	r2, r3
 8000b96:	f8d7 3134 	ldr.w	r3, [r7, #308]	@ 0x134
 8000b9a:	ea4f 53b3 	mov.w	r3, r3, ror #22
 8000b9e:	405a      	eors	r2, r3
 8000ba0:	f8d7 1130 	ldr.w	r1, [r7, #304]	@ 0x130
 8000ba4:	f8d7 312c 	ldr.w	r3, [r7, #300]	@ 0x12c
 8000ba8:	4059      	eors	r1, r3
 8000baa:	f8d7 3134 	ldr.w	r3, [r7, #308]	@ 0x134
 8000bae:	4019      	ands	r1, r3
 8000bb0:	f8d7 0130 	ldr.w	r0, [r7, #304]	@ 0x130
 8000bb4:	f8d7 312c 	ldr.w	r3, [r7, #300]	@ 0x12c
 8000bb8:	4003      	ands	r3, r0
 8000bba:	404b      	eors	r3, r1
 8000bbc:	4413      	add	r3, r2
 8000bbe:	f8c7 3108 	str.w	r3, [r7, #264]	@ 0x108
        h=g; g=f; f=e; e=d+t1;
 8000bc2:	f8d7 311c 	ldr.w	r3, [r7, #284]	@ 0x11c
 8000bc6:	f8c7 3118 	str.w	r3, [r7, #280]	@ 0x118
 8000bca:	f8d7 3120 	ldr.w	r3, [r7, #288]	@ 0x120
 8000bce:	f8c7 311c 	str.w	r3, [r7, #284]	@ 0x11c
 8000bd2:	f8d7 3124 	ldr.w	r3, [r7, #292]	@ 0x124
 8000bd6:	f8c7 3120 	str.w	r3, [r7, #288]	@ 0x120
 8000bda:	f8d7 2128 	ldr.w	r2, [r7, #296]	@ 0x128
 8000bde:	f8d7 310c 	ldr.w	r3, [r7, #268]	@ 0x10c
 8000be2:	4413      	add	r3, r2
 8000be4:	f8c7 3124 	str.w	r3, [r7, #292]	@ 0x124
        d=c; c=b; b=a; a=t1+t2;
 8000be8:	f8d7 312c 	ldr.w	r3, [r7, #300]	@ 0x12c
 8000bec:	f8c7 3128 	str.w	r3, [r7, #296]	@ 0x128
 8000bf0:	f8d7 3130 	ldr.w	r3, [r7, #304]	@ 0x130
 8000bf4:	f8c7 312c 	str.w	r3, [r7, #300]	@ 0x12c
 8000bf8:	f8d7 3134 	ldr.w	r3, [r7, #308]	@ 0x134
 8000bfc:	f8c7 3130 	str.w	r3, [r7, #304]	@ 0x130
 8000c00:	f8d7 210c 	ldr.w	r2, [r7, #268]	@ 0x10c
 8000c04:	f8d7 3108 	ldr.w	r3, [r7, #264]	@ 0x108
 8000c08:	4413      	add	r3, r2
 8000c0a:	f8c7 3134 	str.w	r3, [r7, #308]	@ 0x134
    for (i=0; i<64; ++i) {
 8000c0e:	f8d7 3114 	ldr.w	r3, [r7, #276]	@ 0x114
 8000c12:	3301      	adds	r3, #1
 8000c14:	f8c7 3114 	str.w	r3, [r7, #276]	@ 0x114
 8000c18:	f8d7 3114 	ldr.w	r3, [r7, #276]	@ 0x114
 8000c1c:	2b3f      	cmp	r3, #63	@ 0x3f
 8000c1e:	d982      	bls.n	8000b26 <sha256_transform+0x216>
    }

    ctx->state[0]+=a; ctx->state[1]+=b;
 8000c20:	f507 739c 	add.w	r3, r7, #312	@ 0x138
 8000c24:	f5a3 739a 	sub.w	r3, r3, #308	@ 0x134
 8000c28:	681b      	ldr	r3, [r3, #0]
 8000c2a:	6d1a      	ldr	r2, [r3, #80]	@ 0x50
 8000c2c:	f8d7 3134 	ldr.w	r3, [r7, #308]	@ 0x134
 8000c30:	441a      	add	r2, r3
 8000c32:	f507 739c 	add.w	r3, r7, #312	@ 0x138
 8000c36:	f5a3 739a 	sub.w	r3, r3, #308	@ 0x134
 8000c3a:	681b      	ldr	r3, [r3, #0]
 8000c3c:	651a      	str	r2, [r3, #80]	@ 0x50
 8000c3e:	f507 739c 	add.w	r3, r7, #312	@ 0x138
 8000c42:	f5a3 739a 	sub.w	r3, r3, #308	@ 0x134
 8000c46:	681b      	ldr	r3, [r3, #0]
 8000c48:	6d5a      	ldr	r2, [r3, #84]	@ 0x54
 8000c4a:	f8d7 3130 	ldr.w	r3, [r7, #304]	@ 0x130
 8000c4e:	441a      	add	r2, r3
 8000c50:	f507 739c 	add.w	r3, r7, #312	@ 0x138
 8000c54:	f5a3 739a 	sub.w	r3, r3, #308	@ 0x134
 8000c58:	681b      	ldr	r3, [r3, #0]
 8000c5a:	655a      	str	r2, [r3, #84]	@ 0x54
    ctx->state[2]+=c; ctx->state[3]+=d;
 8000c5c:	f507 739c 	add.w	r3, r7, #312	@ 0x138
 8000c60:	f5a3 739a 	sub.w	r3, r3, #308	@ 0x134
 8000c64:	681b      	ldr	r3, [r3, #0]
 8000c66:	6d9a      	ldr	r2, [r3, #88]	@ 0x58
 8000c68:	f8d7 312c 	ldr.w	r3, [r7, #300]	@ 0x12c
 8000c6c:	441a      	add	r2, r3
 8000c6e:	f507 739c 	add.w	r3, r7, #312	@ 0x138
 8000c72:	f5a3 739a 	sub.w	r3, r3, #308	@ 0x134
 8000c76:	681b      	ldr	r3, [r3, #0]
 8000c78:	659a      	str	r2, [r3, #88]	@ 0x58
 8000c7a:	f507 739c 	add.w	r3, r7, #312	@ 0x138
 8000c7e:	f5a3 739a 	sub.w	r3, r3, #308	@ 0x134
 8000c82:	681b      	ldr	r3, [r3, #0]
 8000c84:	6dda      	ldr	r2, [r3, #92]	@ 0x5c
 8000c86:	f8d7 3128 	ldr.w	r3, [r7, #296]	@ 0x128
 8000c8a:	441a      	add	r2, r3
 8000c8c:	f507 739c 	add.w	r3, r7, #312	@ 0x138
 8000c90:	f5a3 739a 	sub.w	r3, r3, #308	@ 0x134
 8000c94:	681b      	ldr	r3, [r3, #0]
 8000c96:	65da      	str	r2, [r3, #92]	@ 0x5c
    ctx->state[4]+=e; ctx->state[5]+=f;
 8000c98:	f507 739c 	add.w	r3, r7, #312	@ 0x138
 8000c9c:	f5a3 739a 	sub.w	r3, r3, #308	@ 0x134
 8000ca0:	681b      	ldr	r3, [r3, #0]
 8000ca2:	6e1a      	ldr	r2, [r3, #96]	@ 0x60
 8000ca4:	f8d7 3124 	ldr.w	r3, [r7, #292]	@ 0x124
 8000ca8:	441a      	add	r2, r3
 8000caa:	f507 739c 	add.w	r3, r7, #312	@ 0x138
 8000cae:	f5a3 739a 	sub.w	r3, r3, #308	@ 0x134
 8000cb2:	681b      	ldr	r3, [r3, #0]
 8000cb4:	661a      	str	r2, [r3, #96]	@ 0x60
 8000cb6:	f507 739c 	add.w	r3, r7, #312	@ 0x138
 8000cba:	f5a3 739a 	sub.w	r3, r3, #308	@ 0x134
 8000cbe:	681b      	ldr	r3, [r3, #0]
 8000cc0:	6e5a      	ldr	r2, [r3, #100]	@ 0x64
 8000cc2:	f8d7 3120 	ldr.w	r3, [r7, #288]	@ 0x120
 8000cc6:	441a      	add	r2, r3
 8000cc8:	f507 739c 	add.w	r3, r7, #312	@ 0x138
 8000ccc:	f5a3 739a 	sub.w	r3, r3, #308	@ 0x134
 8000cd0:	681b      	ldr	r3, [r3, #0]
 8000cd2:	665a      	str	r2, [r3, #100]	@ 0x64
    ctx->state[6]+=g; ctx->state[7]+=h;
 8000cd4:	f507 739c 	add.w	r3, r7, #312	@ 0x138
 8000cd8:	f5a3 739a 	sub.w	r3, r3, #308	@ 0x134
 8000cdc:	681b      	ldr	r3, [r3, #0]
 8000cde:	6e9a      	ldr	r2, [r3, #104]	@ 0x68
 8000ce0:	f8d7 311c 	ldr.w	r3, [r7, #284]	@ 0x11c
 8000ce4:	441a      	add	r2, r3
 8000ce6:	f507 739c 	add.w	r3, r7, #312	@ 0x138
 8000cea:	f5a3 739a 	sub.w	r3, r3, #308	@ 0x134
 8000cee:	681b      	ldr	r3, [r3, #0]
 8000cf0:	669a      	str	r2, [r3, #104]	@ 0x68
 8000cf2:	f507 739c 	add.w	r3, r7, #312	@ 0x138
 8000cf6:	f5a3 739a 	sub.w	r3, r3, #308	@ 0x134
 8000cfa:	681b      	ldr	r3, [r3, #0]
 8000cfc:	6eda      	ldr	r2, [r3, #108]	@ 0x6c
 8000cfe:	f8d7 3118 	ldr.w	r3, [r7, #280]	@ 0x118
 8000d02:	441a      	add	r2, r3
 8000d04:	f507 739c 	add.w	r3, r7, #312	@ 0x138
 8000d08:	f5a3 739a 	sub.w	r3, r3, #308	@ 0x134
 8000d0c:	681b      	ldr	r3, [r3, #0]
 8000d0e:	66da      	str	r2, [r3, #108]	@ 0x6c
}
 8000d10:	bf00      	nop
 8000d12:	f507 779e 	add.w	r7, r7, #316	@ 0x13c
 8000d16:	46bd      	mov	sp, r7
 8000d18:	f85d 7b04 	ldr.w	r7, [sp], #4
 8000d1c:	4770      	bx	lr
 8000d1e:	bf00      	nop
 8000d20:	08001678 	.word	0x08001678

08000d24 <sha256_init>:

void sha256_init(SHA256_CTX *ctx)
{
 8000d24:	b480      	push	{r7}
 8000d26:	b083      	sub	sp, #12
 8000d28:	af00      	add	r7, sp, #0
 8000d2a:	6078      	str	r0, [r7, #4]
    ctx->datalen = 0;
 8000d2c:	687b      	ldr	r3, [r7, #4]
 8000d2e:	2200      	movs	r2, #0
 8000d30:	641a      	str	r2, [r3, #64]	@ 0x40
    ctx->bitlen  = 0;
 8000d32:	6879      	ldr	r1, [r7, #4]
 8000d34:	f04f 0200 	mov.w	r2, #0
 8000d38:	f04f 0300 	mov.w	r3, #0
 8000d3c:	e9c1 2312 	strd	r2, r3, [r1, #72]	@ 0x48
    ctx->state[0] = 0x6a09e667;
 8000d40:	687b      	ldr	r3, [r7, #4]
 8000d42:	4a0e      	ldr	r2, [pc, #56]	@ (8000d7c <sha256_init+0x58>)
 8000d44:	651a      	str	r2, [r3, #80]	@ 0x50
    ctx->state[1] = 0xbb67ae85;
 8000d46:	687b      	ldr	r3, [r7, #4]
 8000d48:	4a0d      	ldr	r2, [pc, #52]	@ (8000d80 <sha256_init+0x5c>)
 8000d4a:	655a      	str	r2, [r3, #84]	@ 0x54
    ctx->state[2] = 0x3c6ef372;
 8000d4c:	687b      	ldr	r3, [r7, #4]
 8000d4e:	4a0d      	ldr	r2, [pc, #52]	@ (8000d84 <sha256_init+0x60>)
 8000d50:	659a      	str	r2, [r3, #88]	@ 0x58
    ctx->state[3] = 0xa54ff53a;
 8000d52:	687b      	ldr	r3, [r7, #4]
 8000d54:	4a0c      	ldr	r2, [pc, #48]	@ (8000d88 <sha256_init+0x64>)
 8000d56:	65da      	str	r2, [r3, #92]	@ 0x5c
    ctx->state[4] = 0x510e527f;
 8000d58:	687b      	ldr	r3, [r7, #4]
 8000d5a:	4a0c      	ldr	r2, [pc, #48]	@ (8000d8c <sha256_init+0x68>)
 8000d5c:	661a      	str	r2, [r3, #96]	@ 0x60
    ctx->state[5] = 0x9b05688c;
 8000d5e:	687b      	ldr	r3, [r7, #4]
 8000d60:	4a0b      	ldr	r2, [pc, #44]	@ (8000d90 <sha256_init+0x6c>)
 8000d62:	665a      	str	r2, [r3, #100]	@ 0x64
    ctx->state[6] = 0x1f83d9ab;
 8000d64:	687b      	ldr	r3, [r7, #4]
 8000d66:	4a0b      	ldr	r2, [pc, #44]	@ (8000d94 <sha256_init+0x70>)
 8000d68:	669a      	str	r2, [r3, #104]	@ 0x68
    ctx->state[7] = 0x5be0cd19;
 8000d6a:	687b      	ldr	r3, [r7, #4]
 8000d6c:	4a0a      	ldr	r2, [pc, #40]	@ (8000d98 <sha256_init+0x74>)
 8000d6e:	66da      	str	r2, [r3, #108]	@ 0x6c
}
 8000d70:	bf00      	nop
 8000d72:	370c      	adds	r7, #12
 8000d74:	46bd      	mov	sp, r7
 8000d76:	f85d 7b04 	ldr.w	r7, [sp], #4
 8000d7a:	4770      	bx	lr
 8000d7c:	6a09e667 	.word	0x6a09e667
 8000d80:	bb67ae85 	.word	0xbb67ae85
 8000d84:	3c6ef372 	.word	0x3c6ef372
 8000d88:	a54ff53a 	.word	0xa54ff53a
 8000d8c:	510e527f 	.word	0x510e527f
 8000d90:	9b05688c 	.word	0x9b05688c
 8000d94:	1f83d9ab 	.word	0x1f83d9ab
 8000d98:	5be0cd19 	.word	0x5be0cd19

08000d9c <sha256_update>:

void sha256_update(SHA256_CTX *ctx, const uint8_t *data, size_t len)
{
 8000d9c:	b5b0      	push	{r4, r5, r7, lr}
 8000d9e:	b086      	sub	sp, #24
 8000da0:	af00      	add	r7, sp, #0
 8000da2:	60f8      	str	r0, [r7, #12]
 8000da4:	60b9      	str	r1, [r7, #8]
 8000da6:	607a      	str	r2, [r7, #4]
    uint32_t i;
    for (i=0; i<len; ++i) {
 8000da8:	2300      	movs	r3, #0
 8000daa:	617b      	str	r3, [r7, #20]
 8000dac:	e025      	b.n	8000dfa <sha256_update+0x5e>
        ctx->data[ctx->datalen] = data[i];
 8000dae:	68ba      	ldr	r2, [r7, #8]
 8000db0:	697b      	ldr	r3, [r7, #20]
 8000db2:	441a      	add	r2, r3
 8000db4:	68fb      	ldr	r3, [r7, #12]
 8000db6:	6c1b      	ldr	r3, [r3, #64]	@ 0x40
 8000db8:	7811      	ldrb	r1, [r2, #0]
 8000dba:	68fa      	ldr	r2, [r7, #12]
 8000dbc:	54d1      	strb	r1, [r2, r3]
        ctx->datalen++;
 8000dbe:	68fb      	ldr	r3, [r7, #12]
 8000dc0:	6c1b      	ldr	r3, [r3, #64]	@ 0x40
 8000dc2:	1c5a      	adds	r2, r3, #1
 8000dc4:	68fb      	ldr	r3, [r7, #12]
 8000dc6:	641a      	str	r2, [r3, #64]	@ 0x40
        if (ctx->datalen == 64) {
 8000dc8:	68fb      	ldr	r3, [r7, #12]
 8000dca:	6c1b      	ldr	r3, [r3, #64]	@ 0x40
 8000dcc:	2b40      	cmp	r3, #64	@ 0x40
 8000dce:	d111      	bne.n	8000df4 <sha256_update+0x58>
            sha256_transform(ctx, ctx->data);
 8000dd0:	68fb      	ldr	r3, [r7, #12]
 8000dd2:	4619      	mov	r1, r3
 8000dd4:	68f8      	ldr	r0, [r7, #12]
 8000dd6:	f7ff fd9b 	bl	8000910 <sha256_transform>
            ctx->bitlen += 512;
 8000dda:	68fb      	ldr	r3, [r7, #12]
 8000ddc:	e9d3 2312 	ldrd	r2, r3, [r3, #72]	@ 0x48
 8000de0:	f512 7400 	adds.w	r4, r2, #512	@ 0x200
 8000de4:	f143 0500 	adc.w	r5, r3, #0
 8000de8:	68fb      	ldr	r3, [r7, #12]
 8000dea:	e9c3 4512 	strd	r4, r5, [r3, #72]	@ 0x48
            ctx->datalen = 0;
 8000dee:	68fb      	ldr	r3, [r7, #12]
 8000df0:	2200      	movs	r2, #0
 8000df2:	641a      	str	r2, [r3, #64]	@ 0x40
    for (i=0; i<len; ++i) {
 8000df4:	697b      	ldr	r3, [r7, #20]
 8000df6:	3301      	adds	r3, #1
 8000df8:	617b      	str	r3, [r7, #20]
 8000dfa:	697a      	ldr	r2, [r7, #20]
 8000dfc:	687b      	ldr	r3, [r7, #4]
 8000dfe:	429a      	cmp	r2, r3
 8000e00:	d3d5      	bcc.n	8000dae <sha256_update+0x12>
        }
    }
}
 8000e02:	bf00      	nop
 8000e04:	bf00      	nop
 8000e06:	3718      	adds	r7, #24
 8000e08:	46bd      	mov	sp, r7
 8000e0a:	bdb0      	pop	{r4, r5, r7, pc}

08000e0c <sha256_final>:

void sha256_final(SHA256_CTX *ctx, uint8_t *hash)
{
 8000e0c:	e92d 43b0 	stmdb	sp!, {r4, r5, r7, r8, r9, lr}
 8000e10:	b084      	sub	sp, #16
 8000e12:	af00      	add	r7, sp, #0
 8000e14:	6078      	str	r0, [r7, #4]
 8000e16:	6039      	str	r1, [r7, #0]
    uint32_t i = ctx->datalen;
 8000e18:	687b      	ldr	r3, [r7, #4]
 8000e1a:	6c1b      	ldr	r3, [r3, #64]	@ 0x40
 8000e1c:	60fb      	str	r3, [r7, #12]

    if (ctx->datalen < 56) {
 8000e1e:	687b      	ldr	r3, [r7, #4]
 8000e20:	6c1b      	ldr	r3, [r3, #64]	@ 0x40
 8000e22:	2b37      	cmp	r3, #55	@ 0x37
 8000e24:	d810      	bhi.n	8000e48 <sha256_final+0x3c>
        ctx->data[i++] = 0x80;
 8000e26:	68fb      	ldr	r3, [r7, #12]
 8000e28:	1c5a      	adds	r2, r3, #1
 8000e2a:	60fa      	str	r2, [r7, #12]
 8000e2c:	687a      	ldr	r2, [r7, #4]
 8000e2e:	2180      	movs	r1, #128	@ 0x80
 8000e30:	54d1      	strb	r1, [r2, r3]
        while (i < 56) ctx->data[i++] = 0x00;
 8000e32:	e005      	b.n	8000e40 <sha256_final+0x34>
 8000e34:	68fb      	ldr	r3, [r7, #12]
 8000e36:	1c5a      	adds	r2, r3, #1
 8000e38:	60fa      	str	r2, [r7, #12]
 8000e3a:	687a      	ldr	r2, [r7, #4]
 8000e3c:	2100      	movs	r1, #0
 8000e3e:	54d1      	strb	r1, [r2, r3]
 8000e40:	68fb      	ldr	r3, [r7, #12]
 8000e42:	2b37      	cmp	r3, #55	@ 0x37
 8000e44:	d9f6      	bls.n	8000e34 <sha256_final+0x28>
 8000e46:	e01a      	b.n	8000e7e <sha256_final+0x72>
    } else {
        ctx->data[i++] = 0x80;
 8000e48:	68fb      	ldr	r3, [r7, #12]
 8000e4a:	1c5a      	adds	r2, r3, #1
 8000e4c:	60fa      	str	r2, [r7, #12]
 8000e4e:	687a      	ldr	r2, [r7, #4]
 8000e50:	2180      	movs	r1, #128	@ 0x80
 8000e52:	54d1      	strb	r1, [r2, r3]
        while (i < 64) ctx->data[i++] = 0x00;
 8000e54:	e005      	b.n	8000e62 <sha256_final+0x56>
 8000e56:	68fb      	ldr	r3, [r7, #12]
 8000e58:	1c5a      	adds	r2, r3, #1
 8000e5a:	60fa      	str	r2, [r7, #12]
 8000e5c:	687a      	ldr	r2, [r7, #4]
 8000e5e:	2100      	movs	r1, #0
 8000e60:	54d1      	strb	r1, [r2, r3]
 8000e62:	68fb      	ldr	r3, [r7, #12]
 8000e64:	2b3f      	cmp	r3, #63	@ 0x3f
 8000e66:	d9f6      	bls.n	8000e56 <sha256_final+0x4a>
        sha256_transform(ctx, ctx->data);
 8000e68:	687b      	ldr	r3, [r7, #4]
 8000e6a:	4619      	mov	r1, r3
 8000e6c:	6878      	ldr	r0, [r7, #4]
 8000e6e:	f7ff fd4f 	bl	8000910 <sha256_transform>
        memset(ctx->data, 0, 56);
 8000e72:	687b      	ldr	r3, [r7, #4]
 8000e74:	2238      	movs	r2, #56	@ 0x38
 8000e76:	2100      	movs	r1, #0
 8000e78:	4618      	mov	r0, r3
 8000e7a:	f000 fa1b 	bl	80012b4 <memset>
    }

    ctx->bitlen += ctx->datalen * 8;
 8000e7e:	687b      	ldr	r3, [r7, #4]
 8000e80:	e9d3 2312 	ldrd	r2, r3, [r3, #72]	@ 0x48
 8000e84:	6879      	ldr	r1, [r7, #4]
 8000e86:	6c09      	ldr	r1, [r1, #64]	@ 0x40
 8000e88:	00c9      	lsls	r1, r1, #3
 8000e8a:	2000      	movs	r0, #0
 8000e8c:	460c      	mov	r4, r1
 8000e8e:	4605      	mov	r5, r0
 8000e90:	eb12 0804 	adds.w	r8, r2, r4
 8000e94:	eb43 0905 	adc.w	r9, r3, r5
 8000e98:	687b      	ldr	r3, [r7, #4]
 8000e9a:	e9c3 8912 	strd	r8, r9, [r3, #72]	@ 0x48
    ctx->data[63] = (uint8_t)(ctx->bitlen);
 8000e9e:	687b      	ldr	r3, [r7, #4]
 8000ea0:	e9d3 2312 	ldrd	r2, r3, [r3, #72]	@ 0x48
 8000ea4:	b2d2      	uxtb	r2, r2
 8000ea6:	687b      	ldr	r3, [r7, #4]
 8000ea8:	f883 203f 	strb.w	r2, [r3, #63]	@ 0x3f
    ctx->data[62] = (uint8_t)(ctx->bitlen >> 8);
 8000eac:	687b      	ldr	r3, [r7, #4]
 8000eae:	e9d3 0112 	ldrd	r0, r1, [r3, #72]	@ 0x48
 8000eb2:	f04f 0200 	mov.w	r2, #0
 8000eb6:	f04f 0300 	mov.w	r3, #0
 8000eba:	0a02      	lsrs	r2, r0, #8
 8000ebc:	ea42 6201 	orr.w	r2, r2, r1, lsl #24
 8000ec0:	0a0b      	lsrs	r3, r1, #8
 8000ec2:	b2d2      	uxtb	r2, r2
 8000ec4:	687b      	ldr	r3, [r7, #4]
 8000ec6:	f883 203e 	strb.w	r2, [r3, #62]	@ 0x3e
    ctx->data[61] = (uint8_t)(ctx->bitlen >> 16);
 8000eca:	687b      	ldr	r3, [r7, #4]
 8000ecc:	e9d3 0112 	ldrd	r0, r1, [r3, #72]	@ 0x48
 8000ed0:	f04f 0200 	mov.w	r2, #0
 8000ed4:	f04f 0300 	mov.w	r3, #0
 8000ed8:	0c02      	lsrs	r2, r0, #16
 8000eda:	ea42 4201 	orr.w	r2, r2, r1, lsl #16
 8000ede:	0c0b      	lsrs	r3, r1, #16
 8000ee0:	b2d2      	uxtb	r2, r2
 8000ee2:	687b      	ldr	r3, [r7, #4]
 8000ee4:	f883 203d 	strb.w	r2, [r3, #61]	@ 0x3d
    ctx->data[60] = (uint8_t)(ctx->bitlen >> 24);
 8000ee8:	687b      	ldr	r3, [r7, #4]
 8000eea:	e9d3 0112 	ldrd	r0, r1, [r3, #72]	@ 0x48
 8000eee:	f04f 0200 	mov.w	r2, #0
 8000ef2:	f04f 0300 	mov.w	r3, #0
 8000ef6:	0e02      	lsrs	r2, r0, #24
 8000ef8:	ea42 2201 	orr.w	r2, r2, r1, lsl #8
 8000efc:	0e0b      	lsrs	r3, r1, #24
 8000efe:	b2d2      	uxtb	r2, r2
 8000f00:	687b      	ldr	r3, [r7, #4]
 8000f02:	f883 203c 	strb.w	r2, [r3, #60]	@ 0x3c
    ctx->data[59] = (uint8_t)(ctx->bitlen >> 32);
 8000f06:	687b      	ldr	r3, [r7, #4]
 8000f08:	e9d3 0112 	ldrd	r0, r1, [r3, #72]	@ 0x48
 8000f0c:	f04f 0200 	mov.w	r2, #0
 8000f10:	f04f 0300 	mov.w	r3, #0
 8000f14:	000a      	movs	r2, r1
 8000f16:	2300      	movs	r3, #0
 8000f18:	b2d2      	uxtb	r2, r2
 8000f1a:	687b      	ldr	r3, [r7, #4]
 8000f1c:	f883 203b 	strb.w	r2, [r3, #59]	@ 0x3b
    ctx->data[58] = (uint8_t)(ctx->bitlen >> 40);
 8000f20:	687b      	ldr	r3, [r7, #4]
 8000f22:	e9d3 0112 	ldrd	r0, r1, [r3, #72]	@ 0x48
 8000f26:	f04f 0200 	mov.w	r2, #0
 8000f2a:	f04f 0300 	mov.w	r3, #0
 8000f2e:	0a0a      	lsrs	r2, r1, #8
 8000f30:	2300      	movs	r3, #0
 8000f32:	b2d2      	uxtb	r2, r2
 8000f34:	687b      	ldr	r3, [r7, #4]
 8000f36:	f883 203a 	strb.w	r2, [r3, #58]	@ 0x3a
    ctx->data[57] = (uint8_t)(ctx->bitlen >> 48);
 8000f3a:	687b      	ldr	r3, [r7, #4]
 8000f3c:	e9d3 0112 	ldrd	r0, r1, [r3, #72]	@ 0x48
 8000f40:	f04f 0200 	mov.w	r2, #0
 8000f44:	f04f 0300 	mov.w	r3, #0
 8000f48:	0c0a      	lsrs	r2, r1, #16
 8000f4a:	2300      	movs	r3, #0
 8000f4c:	b2d2      	uxtb	r2, r2
 8000f4e:	687b      	ldr	r3, [r7, #4]
 8000f50:	f883 2039 	strb.w	r2, [r3, #57]	@ 0x39
    ctx->data[56] = (uint8_t)(ctx->bitlen >> 56);
 8000f54:	687b      	ldr	r3, [r7, #4]
 8000f56:	e9d3 0112 	ldrd	r0, r1, [r3, #72]	@ 0x48
 8000f5a:	f04f 0200 	mov.w	r2, #0
 8000f5e:	f04f 0300 	mov.w	r3, #0
 8000f62:	0e0a      	lsrs	r2, r1, #24
 8000f64:	2300      	movs	r3, #0
 8000f66:	b2d2      	uxtb	r2, r2
 8000f68:	687b      	ldr	r3, [r7, #4]
 8000f6a:	f883 2038 	strb.w	r2, [r3, #56]	@ 0x38
    sha256_transform(ctx, ctx->data);
 8000f6e:	687b      	ldr	r3, [r7, #4]
 8000f70:	4619      	mov	r1, r3
 8000f72:	6878      	ldr	r0, [r7, #4]
 8000f74:	f7ff fccc 	bl	8000910 <sha256_transform>

    for (i=0; i<4; ++i) {
 8000f78:	2300      	movs	r3, #0
 8000f7a:	60fb      	str	r3, [r7, #12]
 8000f7c:	e071      	b.n	8001062 <sha256_final+0x256>
        hash[i]    = (ctx->state[0] >> (24-i*8)) & 0xff;
 8000f7e:	687b      	ldr	r3, [r7, #4]
 8000f80:	6d1a      	ldr	r2, [r3, #80]	@ 0x50
 8000f82:	68fb      	ldr	r3, [r7, #12]
 8000f84:	f1c3 0303 	rsb	r3, r3, #3
 8000f88:	00db      	lsls	r3, r3, #3
 8000f8a:	fa22 f103 	lsr.w	r1, r2, r3
 8000f8e:	683a      	ldr	r2, [r7, #0]
 8000f90:	68fb      	ldr	r3, [r7, #12]
 8000f92:	4413      	add	r3, r2
 8000f94:	b2ca      	uxtb	r2, r1
 8000f96:	701a      	strb	r2, [r3, #0]
        hash[i+4]  = (ctx->state[1] >> (24-i*8)) & 0xff;
 8000f98:	687b      	ldr	r3, [r7, #4]
 8000f9a:	6d5a      	ldr	r2, [r3, #84]	@ 0x54
 8000f9c:	68fb      	ldr	r3, [r7, #12]
 8000f9e:	f1c3 0303 	rsb	r3, r3, #3
 8000fa2:	00db      	lsls	r3, r3, #3
 8000fa4:	fa22 f103 	lsr.w	r1, r2, r3
 8000fa8:	68fb      	ldr	r3, [r7, #12]
 8000faa:	3304      	adds	r3, #4
 8000fac:	683a      	ldr	r2, [r7, #0]
 8000fae:	4413      	add	r3, r2
 8000fb0:	b2ca      	uxtb	r2, r1
 8000fb2:	701a      	strb	r2, [r3, #0]
        hash[i+8]  = (ctx->state[2] >> (24-i*8)) & 0xff;
 8000fb4:	687b      	ldr	r3, [r7, #4]
 8000fb6:	6d9a      	ldr	r2, [r3, #88]	@ 0x58
 8000fb8:	68fb      	ldr	r3, [r7, #12]
 8000fba:	f1c3 0303 	rsb	r3, r3, #3
 8000fbe:	00db      	lsls	r3, r3, #3
 8000fc0:	fa22 f103 	lsr.w	r1, r2, r3
 8000fc4:	68fb      	ldr	r3, [r7, #12]
 8000fc6:	3308      	adds	r3, #8
 8000fc8:	683a      	ldr	r2, [r7, #0]
 8000fca:	4413      	add	r3, r2
 8000fcc:	b2ca      	uxtb	r2, r1
 8000fce:	701a      	strb	r2, [r3, #0]
        hash[i+12] = (ctx->state[3] >> (24-i*8)) & 0xff;
 8000fd0:	687b      	ldr	r3, [r7, #4]
 8000fd2:	6dda      	ldr	r2, [r3, #92]	@ 0x5c
 8000fd4:	68fb      	ldr	r3, [r7, #12]
 8000fd6:	f1c3 0303 	rsb	r3, r3, #3
 8000fda:	00db      	lsls	r3, r3, #3
 8000fdc:	fa22 f103 	lsr.w	r1, r2, r3
 8000fe0:	68fb      	ldr	r3, [r7, #12]
 8000fe2:	330c      	adds	r3, #12
 8000fe4:	683a      	ldr	r2, [r7, #0]
 8000fe6:	4413      	add	r3, r2
 8000fe8:	b2ca      	uxtb	r2, r1
 8000fea:	701a      	strb	r2, [r3, #0]
        hash[i+16] = (ctx->state[4] >> (24-i*8)) & 0xff;
 8000fec:	687b      	ldr	r3, [r7, #4]
 8000fee:	6e1a      	ldr	r2, [r3, #96]	@ 0x60
 8000ff0:	68fb      	ldr	r3, [r7, #12]
 8000ff2:	f1c3 0303 	rsb	r3, r3, #3
 8000ff6:	00db      	lsls	r3, r3, #3
 8000ff8:	fa22 f103 	lsr.w	r1, r2, r3
 8000ffc:	68fb      	ldr	r3, [r7, #12]
 8000ffe:	3310      	adds	r3, #16
 8001000:	683a      	ldr	r2, [r7, #0]
 8001002:	4413      	add	r3, r2
 8001004:	b2ca      	uxtb	r2, r1
 8001006:	701a      	strb	r2, [r3, #0]
        hash[i+20] = (ctx->state[5] >> (24-i*8)) & 0xff;
 8001008:	687b      	ldr	r3, [r7, #4]
 800100a:	6e5a      	ldr	r2, [r3, #100]	@ 0x64
 800100c:	68fb      	ldr	r3, [r7, #12]
 800100e:	f1c3 0303 	rsb	r3, r3, #3
 8001012:	00db      	lsls	r3, r3, #3
 8001014:	fa22 f103 	lsr.w	r1, r2, r3
 8001018:	68fb      	ldr	r3, [r7, #12]
 800101a:	3314      	adds	r3, #20
 800101c:	683a      	ldr	r2, [r7, #0]
 800101e:	4413      	add	r3, r2
 8001020:	b2ca      	uxtb	r2, r1
 8001022:	701a      	strb	r2, [r3, #0]
        hash[i+24] = (ctx->state[6] >> (24-i*8)) & 0xff;
 8001024:	687b      	ldr	r3, [r7, #4]
 8001026:	6e9a      	ldr	r2, [r3, #104]	@ 0x68
 8001028:	68fb      	ldr	r3, [r7, #12]
 800102a:	f1c3 0303 	rsb	r3, r3, #3
 800102e:	00db      	lsls	r3, r3, #3
 8001030:	fa22 f103 	lsr.w	r1, r2, r3
 8001034:	68fb      	ldr	r3, [r7, #12]
 8001036:	3318      	adds	r3, #24
 8001038:	683a      	ldr	r2, [r7, #0]
 800103a:	4413      	add	r3, r2
 800103c:	b2ca      	uxtb	r2, r1
 800103e:	701a      	strb	r2, [r3, #0]
        hash[i+28] = (ctx->state[7] >> (24-i*8)) & 0xff;
 8001040:	687b      	ldr	r3, [r7, #4]
 8001042:	6eda      	ldr	r2, [r3, #108]	@ 0x6c
 8001044:	68fb      	ldr	r3, [r7, #12]
 8001046:	f1c3 0303 	rsb	r3, r3, #3
 800104a:	00db      	lsls	r3, r3, #3
 800104c:	fa22 f103 	lsr.w	r1, r2, r3
 8001050:	68fb      	ldr	r3, [r7, #12]
 8001052:	331c      	adds	r3, #28
 8001054:	683a      	ldr	r2, [r7, #0]
 8001056:	4413      	add	r3, r2
 8001058:	b2ca      	uxtb	r2, r1
 800105a:	701a      	strb	r2, [r3, #0]
    for (i=0; i<4; ++i) {
 800105c:	68fb      	ldr	r3, [r7, #12]
 800105e:	3301      	adds	r3, #1
 8001060:	60fb      	str	r3, [r7, #12]
 8001062:	68fb      	ldr	r3, [r7, #12]
 8001064:	2b03      	cmp	r3, #3
 8001066:	d98a      	bls.n	8000f7e <sha256_final+0x172>
    }
}
 8001068:	bf00      	nop
 800106a:	bf00      	nop
 800106c:	3710      	adds	r7, #16
 800106e:	46bd      	mov	sp, r7
 8001070:	e8bd 83b0 	ldmia.w	sp!, {r4, r5, r7, r8, r9, pc}

08001074 <sha256_compute>:

void sha256_compute(const uint8_t *data, size_t len, uint8_t *hash)
{
 8001074:	b580      	push	{r7, lr}
 8001076:	b0a0      	sub	sp, #128	@ 0x80
 8001078:	af00      	add	r7, sp, #0
 800107a:	60f8      	str	r0, [r7, #12]
 800107c:	60b9      	str	r1, [r7, #8]
 800107e:	607a      	str	r2, [r7, #4]
    SHA256_CTX ctx;
    sha256_init(&ctx);
 8001080:	f107 0310 	add.w	r3, r7, #16
 8001084:	4618      	mov	r0, r3
 8001086:	f7ff fe4d 	bl	8000d24 <sha256_init>
    sha256_update(&ctx, data, len);
 800108a:	f107 0310 	add.w	r3, r7, #16
 800108e:	68ba      	ldr	r2, [r7, #8]
 8001090:	68f9      	ldr	r1, [r7, #12]
 8001092:	4618      	mov	r0, r3
 8001094:	f7ff fe82 	bl	8000d9c <sha256_update>
    sha256_final(&ctx, hash);
 8001098:	f107 0310 	add.w	r3, r7, #16
 800109c:	6879      	ldr	r1, [r7, #4]
 800109e:	4618      	mov	r0, r3
 80010a0:	f7ff feb4 	bl	8000e0c <sha256_final>
}
 80010a4:	bf00      	nop
 80010a6:	3780      	adds	r7, #128	@ 0x80
 80010a8:	46bd      	mov	sp, r7
 80010aa:	bd80      	pop	{r7, pc}

080010ac <NMI_Handler>:
/******************************************************************************/
/**
  * @brief This function handles Non maskable interrupt.
  */
void NMI_Handler(void)
{
 80010ac:	b480      	push	{r7}
 80010ae:	af00      	add	r7, sp, #0
  /* USER CODE BEGIN NonMaskableInt_IRQn 0 */

  /* USER CODE END NonMaskableInt_IRQn 0 */
  /* USER CODE BEGIN NonMaskableInt_IRQn 1 */
   while (1)
 80010b0:	bf00      	nop
 80010b2:	e7fd      	b.n	80010b0 <NMI_Handler+0x4>

080010b4 <HardFault_Handler>:

/**
  * @brief This function handles Hard fault interrupt.
  */
void HardFault_Handler(void)
{
 80010b4:	b480      	push	{r7}
 80010b6:	af00      	add	r7, sp, #0
  /* USER CODE BEGIN HardFault_IRQn 0 */

  /* USER CODE END HardFault_IRQn 0 */
  while (1)
 80010b8:	bf00      	nop
 80010ba:	e7fd      	b.n	80010b8 <HardFault_Handler+0x4>

080010bc <MemManage_Handler>:

/**
  * @brief This function handles Memory management fault.
  */
void MemManage_Handler(void)
{
 80010bc:	b480      	push	{r7}
 80010be:	af00      	add	r7, sp, #0
  /* USER CODE BEGIN MemoryManagement_IRQn 0 */

  /* USER CODE END MemoryManagement_IRQn 0 */
  while (1)
 80010c0:	bf00      	nop
 80010c2:	e7fd      	b.n	80010c0 <MemManage_Handler+0x4>

080010c4 <BusFault_Handler>:

/**
  * @brief This function handles Pre-fetch fault, memory access fault.
  */
void BusFault_Handler(void)
{
 80010c4:	b480      	push	{r7}
 80010c6:	af00      	add	r7, sp, #0
  /* USER CODE BEGIN BusFault_IRQn 0 */

  /* USER CODE END BusFault_IRQn 0 */
  while (1)
 80010c8:	bf00      	nop
 80010ca:	e7fd      	b.n	80010c8 <BusFault_Handler+0x4>

080010cc <UsageFault_Handler>:

/**
  * @brief This function handles Undefined instruction or illegal state.
  */
void UsageFault_Handler(void)
{
 80010cc:	b480      	push	{r7}
 80010ce:	af00      	add	r7, sp, #0
  /* USER CODE BEGIN UsageFault_IRQn 0 */

  /* USER CODE END UsageFault_IRQn 0 */
  while (1)
 80010d0:	bf00      	nop
 80010d2:	e7fd      	b.n	80010d0 <UsageFault_Handler+0x4>

080010d4 <SVC_Handler>:

/**
  * @brief This function handles System service call via SWI instruction.
  */
void SVC_Handler(void)
{
 80010d4:	b480      	push	{r7}
 80010d6:	af00      	add	r7, sp, #0

  /* USER CODE END SVCall_IRQn 0 */
  /* USER CODE BEGIN SVCall_IRQn 1 */

  /* USER CODE END SVCall_IRQn 1 */
}
 80010d8:	bf00      	nop
 80010da:	46bd      	mov	sp, r7
 80010dc:	f85d 7b04 	ldr.w	r7, [sp], #4
 80010e0:	4770      	bx	lr

080010e2 <DebugMon_Handler>:

/**
  * @brief This function handles Debug monitor.
  */
void DebugMon_Handler(void)
{
 80010e2:	b480      	push	{r7}
 80010e4:	af00      	add	r7, sp, #0

  /* USER CODE END DebugMonitor_IRQn 0 */
  /* USER CODE BEGIN DebugMonitor_IRQn 1 */

  /* USER CODE END DebugMonitor_IRQn 1 */
}
 80010e6:	bf00      	nop
 80010e8:	46bd      	mov	sp, r7
 80010ea:	f85d 7b04 	ldr.w	r7, [sp], #4
 80010ee:	4770      	bx	lr

080010f0 <PendSV_Handler>:

/**
  * @brief This function handles Pendable request for system service.
  */
void PendSV_Handler(void)
{
 80010f0:	b480      	push	{r7}
 80010f2:	af00      	add	r7, sp, #0

  /* USER CODE END PendSV_IRQn 0 */
  /* USER CODE BEGIN PendSV_IRQn 1 */

  /* USER CODE END PendSV_IRQn 1 */
}
 80010f4:	bf00      	nop
 80010f6:	46bd      	mov	sp, r7
 80010f8:	f85d 7b04 	ldr.w	r7, [sp], #4
 80010fc:	4770      	bx	lr

080010fe <SysTick_Handler>:

/**
  * @brief This function handles System tick timer.
  */
void SysTick_Handler(void)
{
 80010fe:	b580      	push	{r7, lr}
 8001100:	af00      	add	r7, sp, #0
  /* USER CODE BEGIN SysTick_IRQn 0 */

  /* USER CODE END SysTick_IRQn 0 */
  HAL_IncTick();
 8001102:	f000 f8b3 	bl	800126c <HAL_IncTick>
  /* USER CODE BEGIN SysTick_IRQn 1 */

  /* USER CODE END SysTick_IRQn 1 */
}
 8001106:	bf00      	nop
 8001108:	bd80      	pop	{r7, pc}
	...

0800110c <SystemInit>:
  *         configuration.
  * @param  None
  * @retval None
  */
void SystemInit(void)
{
 800110c:	b480      	push	{r7}
 800110e:	af00      	add	r7, sp, #0
  /* FPU settings ------------------------------------------------------------*/
  #if (__FPU_PRESENT == 1) && (__FPU_USED == 1)
    SCB->CPACR |= ((3UL << 10*2)|(3UL << 11*2));  /* set CP10 and CP11 Full Access */
 8001110:	4b06      	ldr	r3, [pc, #24]	@ (800112c <SystemInit+0x20>)
 8001112:	f8d3 3088 	ldr.w	r3, [r3, #136]	@ 0x88
 8001116:	4a05      	ldr	r2, [pc, #20]	@ (800112c <SystemInit+0x20>)
 8001118:	f443 0370 	orr.w	r3, r3, #15728640	@ 0xf00000
 800111c:	f8c2 3088 	str.w	r3, [r2, #136]	@ 0x88

  /* Configure the Vector Table location -------------------------------------*/
#if defined(USER_VECT_TAB_ADDRESS)
  SCB->VTOR = VECT_TAB_BASE_ADDRESS | VECT_TAB_OFFSET; /* Vector Table Relocation in Internal SRAM */
#endif /* USER_VECT_TAB_ADDRESS */
}
 8001120:	bf00      	nop
 8001122:	46bd      	mov	sp, r7
 8001124:	f85d 7b04 	ldr.w	r7, [sp], #4
 8001128:	4770      	bx	lr
 800112a:	bf00      	nop
 800112c:	e000ed00 	.word	0xe000ed00

08001130 <uart_gpio_init>:

#include "stm32f446xx.h"
#include "uart.h"

static void uart_gpio_init(void)
{
 8001130:	b480      	push	{r7}
 8001132:	af00      	add	r7, sp, #0
    RCC->AHB1ENR |= RCC_AHB1ENR_GPIOAEN;
 8001134:	4b11      	ldr	r3, [pc, #68]	@ (800117c <uart_gpio_init+0x4c>)
 8001136:	6b1b      	ldr	r3, [r3, #48]	@ 0x30
 8001138:	4a10      	ldr	r2, [pc, #64]	@ (800117c <uart_gpio_init+0x4c>)
 800113a:	f043 0301 	orr.w	r3, r3, #1
 800113e:	6313      	str	r3, [r2, #48]	@ 0x30

    /* PA2 = TX, PA3 = RX (AF7) */
    GPIOA->MODER &= ~((3U << (2 * 2)) | (3U << (3 * 2)));
 8001140:	4b0f      	ldr	r3, [pc, #60]	@ (8001180 <uart_gpio_init+0x50>)
 8001142:	681b      	ldr	r3, [r3, #0]
 8001144:	4a0e      	ldr	r2, [pc, #56]	@ (8001180 <uart_gpio_init+0x50>)
 8001146:	f023 03f0 	bic.w	r3, r3, #240	@ 0xf0
 800114a:	6013      	str	r3, [r2, #0]
    GPIOA->MODER |=  ((2U << (2 * 2)) | (2U << (3 * 2)));
 800114c:	4b0c      	ldr	r3, [pc, #48]	@ (8001180 <uart_gpio_init+0x50>)
 800114e:	681b      	ldr	r3, [r3, #0]
 8001150:	4a0b      	ldr	r2, [pc, #44]	@ (8001180 <uart_gpio_init+0x50>)
 8001152:	f043 03a0 	orr.w	r3, r3, #160	@ 0xa0
 8001156:	6013      	str	r3, [r2, #0]

    GPIOA->AFR[0] &= ~((0xFU << (4 * 2)) | (0xFU << (4 * 3)));
 8001158:	4b09      	ldr	r3, [pc, #36]	@ (8001180 <uart_gpio_init+0x50>)
 800115a:	6a1b      	ldr	r3, [r3, #32]
 800115c:	4a08      	ldr	r2, [pc, #32]	@ (8001180 <uart_gpio_init+0x50>)
 800115e:	f423 437f 	bic.w	r3, r3, #65280	@ 0xff00
 8001162:	6213      	str	r3, [r2, #32]
    GPIOA->AFR[0] |=  ((7U  << (4 * 2)) | (7U  << (4 * 3)));
 8001164:	4b06      	ldr	r3, [pc, #24]	@ (8001180 <uart_gpio_init+0x50>)
 8001166:	6a1b      	ldr	r3, [r3, #32]
 8001168:	4a05      	ldr	r2, [pc, #20]	@ (8001180 <uart_gpio_init+0x50>)
 800116a:	f443 43ee 	orr.w	r3, r3, #30464	@ 0x7700
 800116e:	6213      	str	r3, [r2, #32]
}
 8001170:	bf00      	nop
 8001172:	46bd      	mov	sp, r7
 8001174:	f85d 7b04 	ldr.w	r7, [sp], #4
 8001178:	4770      	bx	lr
 800117a:	bf00      	nop
 800117c:	40023800 	.word	0x40023800
 8001180:	40020000 	.word	0x40020000

08001184 <uart_init>:

void uart_init(void)
{
 8001184:	b580      	push	{r7, lr}
 8001186:	af00      	add	r7, sp, #0
    uart_gpio_init();
 8001188:	f7ff ffd2 	bl	8001130 <uart_gpio_init>

    RCC->APB1ENR |= RCC_APB1ENR_USART2EN;
 800118c:	4b09      	ldr	r3, [pc, #36]	@ (80011b4 <uart_init+0x30>)
 800118e:	6c1b      	ldr	r3, [r3, #64]	@ 0x40
 8001190:	4a08      	ldr	r2, [pc, #32]	@ (80011b4 <uart_init+0x30>)
 8001192:	f443 3300 	orr.w	r3, r3, #131072	@ 0x20000
 8001196:	6413      	str	r3, [r2, #64]	@ 0x40
    /*
     * Bootloader clock:
     *  - HSI @ 16 MHz
     *  - APB1 prescaler = 1
     */
    USART2->BRR = 16000000U / 115200U;
 8001198:	4b07      	ldr	r3, [pc, #28]	@ (80011b8 <uart_init+0x34>)
 800119a:	228a      	movs	r2, #138	@ 0x8a
 800119c:	609a      	str	r2, [r3, #8]

    USART2->CR1 = USART_CR1_TE | USART_CR1_RE;
 800119e:	4b06      	ldr	r3, [pc, #24]	@ (80011b8 <uart_init+0x34>)
 80011a0:	220c      	movs	r2, #12
 80011a2:	60da      	str	r2, [r3, #12]
    USART2->CR1 |= USART_CR1_UE;
 80011a4:	4b04      	ldr	r3, [pc, #16]	@ (80011b8 <uart_init+0x34>)
 80011a6:	68db      	ldr	r3, [r3, #12]
 80011a8:	4a03      	ldr	r2, [pc, #12]	@ (80011b8 <uart_init+0x34>)
 80011aa:	f443 5300 	orr.w	r3, r3, #8192	@ 0x2000
 80011ae:	60d3      	str	r3, [r2, #12]
}
 80011b0:	bf00      	nop
 80011b2:	bd80      	pop	{r7, pc}
 80011b4:	40023800 	.word	0x40023800
 80011b8:	40004400 	.word	0x40004400

080011bc <uart_send_char>:

void uart_send_char(char c)
{
 80011bc:	b480      	push	{r7}
 80011be:	b083      	sub	sp, #12
 80011c0:	af00      	add	r7, sp, #0
 80011c2:	4603      	mov	r3, r0
 80011c4:	71fb      	strb	r3, [r7, #7]
    while (!(USART2->SR & USART_SR_TXE));
 80011c6:	bf00      	nop
 80011c8:	4b07      	ldr	r3, [pc, #28]	@ (80011e8 <uart_send_char+0x2c>)
 80011ca:	681b      	ldr	r3, [r3, #0]
 80011cc:	f003 0380 	and.w	r3, r3, #128	@ 0x80
 80011d0:	2b00      	cmp	r3, #0
 80011d2:	d0f9      	beq.n	80011c8 <uart_send_char+0xc>
    USART2->DR = (uint8_t)c;
 80011d4:	4a04      	ldr	r2, [pc, #16]	@ (80011e8 <uart_send_char+0x2c>)
 80011d6:	79fb      	ldrb	r3, [r7, #7]
 80011d8:	6053      	str	r3, [r2, #4]
}
 80011da:	bf00      	nop
 80011dc:	370c      	adds	r7, #12
 80011de:	46bd      	mov	sp, r7
 80011e0:	f85d 7b04 	ldr.w	r7, [sp], #4
 80011e4:	4770      	bx	lr
 80011e6:	bf00      	nop
 80011e8:	40004400 	.word	0x40004400

080011ec <uart_send_str>:

void uart_send_str(const char *s)
{
 80011ec:	b580      	push	{r7, lr}
 80011ee:	b082      	sub	sp, #8
 80011f0:	af00      	add	r7, sp, #0
 80011f2:	6078      	str	r0, [r7, #4]
    while (*s)
 80011f4:	e006      	b.n	8001204 <uart_send_str+0x18>
        uart_send_char(*s++);
 80011f6:	687b      	ldr	r3, [r7, #4]
 80011f8:	1c5a      	adds	r2, r3, #1
 80011fa:	607a      	str	r2, [r7, #4]
 80011fc:	781b      	ldrb	r3, [r3, #0]
 80011fe:	4618      	mov	r0, r3
 8001200:	f7ff ffdc 	bl	80011bc <uart_send_char>
    while (*s)
 8001204:	687b      	ldr	r3, [r7, #4]
 8001206:	781b      	ldrb	r3, [r3, #0]
 8001208:	2b00      	cmp	r3, #0
 800120a:	d1f4      	bne.n	80011f6 <uart_send_str+0xa>
}
 800120c:	bf00      	nop
 800120e:	bf00      	nop
 8001210:	3708      	adds	r7, #8
 8001212:	46bd      	mov	sp, r7
 8001214:	bd80      	pop	{r7, pc}
	...

08001218 <Reset_Handler>:

    .section  .text.Reset_Handler
  .weak  Reset_Handler
  .type  Reset_Handler, %function
Reset_Handler:  
  ldr   sp, =_estack      /* set stack pointer */
 8001218:	f8df d034 	ldr.w	sp, [pc, #52]	@ 8001250 <LoopFillZerobss+0xe>
  
/* Call the clock system initialization function.*/
  bl  SystemInit  
 800121c:	f7ff ff76 	bl	800110c <SystemInit>

/* Copy the data segment initializers from flash to SRAM */  
  ldr r0, =_sdata
 8001220:	480c      	ldr	r0, [pc, #48]	@ (8001254 <LoopFillZerobss+0x12>)
  ldr r1, =_edata
 8001222:	490d      	ldr	r1, [pc, #52]	@ (8001258 <LoopFillZerobss+0x16>)
  ldr r2, =_sidata
 8001224:	4a0d      	ldr	r2, [pc, #52]	@ (800125c <LoopFillZerobss+0x1a>)
  movs r3, #0
 8001226:	2300      	movs	r3, #0
  b LoopCopyDataInit
 8001228:	e002      	b.n	8001230 <LoopCopyDataInit>

0800122a <CopyDataInit>:

CopyDataInit:
  ldr r4, [r2, r3]
 800122a:	58d4      	ldr	r4, [r2, r3]
  str r4, [r0, r3]
 800122c:	50c4      	str	r4, [r0, r3]
  adds r3, r3, #4
 800122e:	3304      	adds	r3, #4

08001230 <LoopCopyDataInit>:

LoopCopyDataInit:
  adds r4, r0, r3
 8001230:	18c4      	adds	r4, r0, r3
  cmp r4, r1
 8001232:	428c      	cmp	r4, r1
  bcc CopyDataInit
 8001234:	d3f9      	bcc.n	800122a <CopyDataInit>
  
/* Zero fill the bss segment. */
  ldr r2, =_sbss
 8001236:	4a0a      	ldr	r2, [pc, #40]	@ (8001260 <LoopFillZerobss+0x1e>)
  ldr r4, =_ebss
 8001238:	4c0a      	ldr	r4, [pc, #40]	@ (8001264 <LoopFillZerobss+0x22>)
  movs r3, #0
 800123a:	2300      	movs	r3, #0
  b LoopFillZerobss
 800123c:	e001      	b.n	8001242 <LoopFillZerobss>

0800123e <FillZerobss>:

FillZerobss:
  str  r3, [r2]
 800123e:	6013      	str	r3, [r2, #0]
  adds r2, r2, #4
 8001240:	3204      	adds	r2, #4

08001242 <LoopFillZerobss>:

LoopFillZerobss:
  cmp r2, r4
 8001242:	42a2      	cmp	r2, r4
  bcc FillZerobss
 8001244:	d3fb      	bcc.n	800123e <FillZerobss>
  
/* Call static constructors */
    bl __libc_init_array
 8001246:	f000 f83d 	bl	80012c4 <__libc_init_array>
/* Call the application's entry point.*/
  bl  main
 800124a:	f7ff f89f 	bl	800038c <main>
  bx  lr    
 800124e:	4770      	bx	lr
  ldr   sp, =_estack      /* set stack pointer */
 8001250:	20020000 	.word	0x20020000
  ldr r0, =_sdata
 8001254:	20000000 	.word	0x20000000
  ldr r1, =_edata
 8001258:	20000004 	.word	0x20000004
  ldr r2, =_sidata
 800125c:	08001780 	.word	0x08001780
  ldr r2, =_sbss
 8001260:	20000004 	.word	0x20000004
  ldr r4, =_ebss
 8001264:	20000024 	.word	0x20000024

08001268 <ADC_IRQHandler>:
 * @retval None       
*/
    .section  .text.Default_Handler,"ax",%progbits
Default_Handler:
Infinite_Loop:
  b  Infinite_Loop
 8001268:	e7fe      	b.n	8001268 <ADC_IRQHandler>
	...

0800126c <HAL_IncTick>:
 * @note This function is declared as __weak to be overwritten in case of other 
  *      implementations in user file.
  * @retval None
  */
__weak void HAL_IncTick(void)
{
 800126c:	b480      	push	{r7}
 800126e:	af00      	add	r7, sp, #0
  uwTick += uwTickFreq;
 8001270:	4b06      	ldr	r3, [pc, #24]	@ (800128c <HAL_IncTick+0x20>)
 8001272:	781b      	ldrb	r3, [r3, #0]
 8001274:	461a      	mov	r2, r3
 8001276:	4b06      	ldr	r3, [pc, #24]	@ (8001290 <HAL_IncTick+0x24>)
 8001278:	681b      	ldr	r3, [r3, #0]
 800127a:	4413      	add	r3, r2
 800127c:	4a04      	ldr	r2, [pc, #16]	@ (8001290 <HAL_IncTick+0x24>)
 800127e:	6013      	str	r3, [r2, #0]
}
 8001280:	bf00      	nop
 8001282:	46bd      	mov	sp, r7
 8001284:	f85d 7b04 	ldr.w	r7, [sp], #4
 8001288:	4770      	bx	lr
 800128a:	bf00      	nop
 800128c:	20000000 	.word	0x20000000
 8001290:	20000020 	.word	0x20000020

08001294 <memcmp>:
 8001294:	b510      	push	{r4, lr}
 8001296:	3901      	subs	r1, #1
 8001298:	4402      	add	r2, r0
 800129a:	4290      	cmp	r0, r2
 800129c:	d101      	bne.n	80012a2 <memcmp+0xe>
 800129e:	2000      	movs	r0, #0
 80012a0:	e005      	b.n	80012ae <memcmp+0x1a>
 80012a2:	7803      	ldrb	r3, [r0, #0]
 80012a4:	f811 4f01 	ldrb.w	r4, [r1, #1]!
 80012a8:	42a3      	cmp	r3, r4
 80012aa:	d001      	beq.n	80012b0 <memcmp+0x1c>
 80012ac:	1b18      	subs	r0, r3, r4
 80012ae:	bd10      	pop	{r4, pc}
 80012b0:	3001      	adds	r0, #1
 80012b2:	e7f2      	b.n	800129a <memcmp+0x6>

080012b4 <memset>:
 80012b4:	4402      	add	r2, r0
 80012b6:	4603      	mov	r3, r0
 80012b8:	4293      	cmp	r3, r2
 80012ba:	d100      	bne.n	80012be <memset+0xa>
 80012bc:	4770      	bx	lr
 80012be:	f803 1b01 	strb.w	r1, [r3], #1
 80012c2:	e7f9      	b.n	80012b8 <memset+0x4>

080012c4 <__libc_init_array>:
 80012c4:	b570      	push	{r4, r5, r6, lr}
 80012c6:	4d0d      	ldr	r5, [pc, #52]	@ (80012fc <__libc_init_array+0x38>)
 80012c8:	4c0d      	ldr	r4, [pc, #52]	@ (8001300 <__libc_init_array+0x3c>)
 80012ca:	1b64      	subs	r4, r4, r5
 80012cc:	10a4      	asrs	r4, r4, #2
 80012ce:	2600      	movs	r6, #0
 80012d0:	42a6      	cmp	r6, r4
 80012d2:	d109      	bne.n	80012e8 <__libc_init_array+0x24>
 80012d4:	4d0b      	ldr	r5, [pc, #44]	@ (8001304 <__libc_init_array+0x40>)
 80012d6:	4c0c      	ldr	r4, [pc, #48]	@ (8001308 <__libc_init_array+0x44>)
 80012d8:	f000 f826 	bl	8001328 <_init>
 80012dc:	1b64      	subs	r4, r4, r5
 80012de:	10a4      	asrs	r4, r4, #2
 80012e0:	2600      	movs	r6, #0
 80012e2:	42a6      	cmp	r6, r4
 80012e4:	d105      	bne.n	80012f2 <__libc_init_array+0x2e>
 80012e6:	bd70      	pop	{r4, r5, r6, pc}
 80012e8:	f855 3b04 	ldr.w	r3, [r5], #4
 80012ec:	4798      	blx	r3
 80012ee:	3601      	adds	r6, #1
 80012f0:	e7ee      	b.n	80012d0 <__libc_init_array+0xc>
 80012f2:	f855 3b04 	ldr.w	r3, [r5], #4
 80012f6:	4798      	blx	r3
 80012f8:	3601      	adds	r6, #1
 80012fa:	e7f2      	b.n	80012e2 <__libc_init_array+0x1e>
 80012fc:	08001778 	.word	0x08001778
 8001300:	08001778 	.word	0x08001778
 8001304:	08001778 	.word	0x08001778
 8001308:	0800177c 	.word	0x0800177c

0800130c <memcpy>:
 800130c:	440a      	add	r2, r1
 800130e:	4291      	cmp	r1, r2
 8001310:	f100 33ff 	add.w	r3, r0, #4294967295
 8001314:	d100      	bne.n	8001318 <memcpy+0xc>
 8001316:	4770      	bx	lr
 8001318:	b510      	push	{r4, lr}
 800131a:	f811 4b01 	ldrb.w	r4, [r1], #1
 800131e:	f803 4f01 	strb.w	r4, [r3, #1]!
 8001322:	4291      	cmp	r1, r2
 8001324:	d1f9      	bne.n	800131a <memcpy+0xe>
 8001326:	bd10      	pop	{r4, pc}

08001328 <_init>:
 8001328:	b5f8      	push	{r3, r4, r5, r6, r7, lr}
 800132a:	bf00      	nop
 800132c:	bcf8      	pop	{r3, r4, r5, r6, r7}
 800132e:	bc08      	pop	{r3}
 8001330:	469e      	mov	lr, r3
 8001332:	4770      	bx	lr

08001334 <_fini>:
 8001334:	b5f8      	push	{r3, r4, r5, r6, r7, lr}
 8001336:	bf00      	nop
 8001338:	bcf8      	pop	{r3, r4, r5, r6, r7}
 800133a:	bc08      	pop	{r3}
 800133c:	469e      	mov	lr, r3
 800133e:	4770      	bx	lr
